                                      1 ;--------------------------------------------------------
                                      2 ; File Created by SDCC : free open source ISO C Compiler 
                                      3 ; Version 4.2.2 #13350 (Linux)
                                      4 ;--------------------------------------------------------
                                      5 	.module dng_crawling
                                      6 	.optsdcc -msm83
                                      7 	
                                      8 ;--------------------------------------------------------
                                      9 ; Public variables in this module
                                     10 ;--------------------------------------------------------
                                     11 	.globl _check_r_walls_w
                                     12 	.globl _check_r_walls_s
                                     13 	.globl _check_r_walls_e
                                     14 	.globl _check_r_walls_n
                                     15 	.globl _check_r_walls
                                     16 	.globl _check_l_walls
                                     17 	.globl _check_m_walls
                                     18 	.globl _return_value
                                     19 	.globl _set_bkg_tiles
                                     20 ;--------------------------------------------------------
                                     21 ; special function registers
                                     22 ;--------------------------------------------------------
                                     23 ;--------------------------------------------------------
                                     24 ; ram data
                                     25 ;--------------------------------------------------------
                                     26 	.area _DATA
                                     27 ;--------------------------------------------------------
                                     28 ; ram data
                                     29 ;--------------------------------------------------------
                                     30 	.area _INITIALIZED
                                     31 ;--------------------------------------------------------
                                     32 ; absolute external ram data
                                     33 ;--------------------------------------------------------
                                     34 	.area _DABS (ABS)
                                     35 ;--------------------------------------------------------
                                     36 ; global & static initialisations
                                     37 ;--------------------------------------------------------
                                     38 	.area _HOME
                                     39 	.area _GSINIT
                                     40 	.area _GSFINAL
                                     41 	.area _GSINIT
                                     42 ;--------------------------------------------------------
                                     43 ; Home
                                     44 ;--------------------------------------------------------
                                     45 	.area _HOME
                                     46 	.area _HOME
                                     47 ;--------------------------------------------------------
                                     48 ; code
                                     49 ;--------------------------------------------------------
                                     50 	.area _CODE
                                     51 ;src/dng_crawling.c:9: unsigned char return_value(const unsigned char *dng, uint8_t width, uint8_t height,uint8_t x ,uint8_t y){
                                     52 ;	---------------------------------
                                     53 ; Function return_value
                                     54 ; ---------------------------------
      000000                         55 _return_value::
      000000 D5               [16]   56 	push	de
      000001 5F               [ 4]   57 	ld	e, a
                                     58 ;src/dng_crawling.c:10: if(y < height && x < width)
      000002 F8 06            [12]   59 	ldhl	sp,	#6
      000004 3A               [ 8]   60 	ld	a, (hl-)
      000005 2B               [ 8]   61 	dec	hl
      000006 96               [ 8]   62 	sub	a, (hl)
      000007 30 1C            [12]   63 	jr	NC, 00102$
      000009 23               [ 8]   64 	inc	hl
      00000A 7E               [ 8]   65 	ld	a, (hl)
      00000B 93               [ 4]   66 	sub	a, e
      00000C 30 17            [12]   67 	jr	NC, 00102$
                                     68 ;src/dng_crawling.c:11: return dng[ y*width + x ];
      00000E 23               [ 8]   69 	inc	hl
      00000F 7E               [ 8]   70 	ld	a, (hl)
      000010 CDr00r00         [24]   71 	call	__muluchar
      000013 F8 05            [12]   72 	ldhl	sp,	#5
      000015 7E               [ 8]   73 	ld	a, (hl)
      000016 1E 00            [ 8]   74 	ld	e, #0x00
      000018 81               [ 4]   75 	add	a, c
      000019 4F               [ 4]   76 	ld	c, a
      00001A 7B               [ 4]   77 	ld	a, e
      00001B 88               [ 4]   78 	adc	a, b
      00001C 47               [ 4]   79 	ld	b, a
      00001D E1               [12]   80 	pop	hl
      00001E E5               [16]   81 	push	hl
      00001F 09               [ 8]   82 	add	hl, bc
      000020 4D               [ 4]   83 	ld	c, l
      000021 44               [ 4]   84 	ld	b, h
      000022 0A               [ 8]   85 	ld	a, (bc)
      000023 18 01            [12]   86 	jr	00105$
      000025                         87 00102$:
                                     88 ;src/dng_crawling.c:13: return NULL;
      000025 AF               [ 4]   89 	xor	a, a
      000026                         90 00105$:
                                     91 ;src/dng_crawling.c:14: }
      000026 33               [ 8]   92 	inc	sp
      000027 33               [ 8]   93 	inc	sp
      000028 E1               [12]   94 	pop	hl
      000029 E8 03            [16]   95 	add	sp, #3
      00002B E9               [ 4]   96 	jp	(hl)
                                     97 ;src/dng_crawling.c:16: void check_m_walls(const unsigned char *dng, uint8_t dungeon_width, uint8_t dungeon_hieght, uint8_t player_x, uint8_t player_y , uint8_t player_dir){
                                     98 ;	---------------------------------
                                     99 ; Function check_m_walls
                                    100 ; ---------------------------------
      00002C                        101 _check_m_walls::
      00002C E8 F2            [16]  102 	add	sp, #-14
      00002E F8 0C            [12]  103 	ldhl	sp,	#12
      000030 73               [ 8]  104 	ld	(hl), e
      000031 23               [ 8]  105 	inc	hl
      000032 72               [ 8]  106 	ld	(hl), d
      000033 2B               [ 8]  107 	dec	hl
      000034 2B               [ 8]  108 	dec	hl
      000035 77               [ 8]  109 	ld	(hl), a
                                    110 ;src/dng_crawling.c:19: uint8_t dist = 0; //0 - no wall; 1 - wall1; 2 - wall2; 3 - wall3;
      000036 F8 00            [12]  111 	ldhl	sp,	#0
                                    112 ;src/dng_crawling.c:20: bool left_is_wall = false;
                                    113 ;src/dng_crawling.c:21: bool right_is_wall = false;
      000038 AF               [ 4]  114 	xor	a, a
      000039 22               [ 8]  115 	ld	(hl+), a
      00003A 0E 00            [ 8]  116 	ld	c, #0x00
                                    117 ;src/dng_crawling.c:22: unsigned char w=0x00;
                                    118 ;src/dng_crawling.c:23: unsigned char l=0x00;
      00003C 79               [ 4]  119 	ld	a, c
      00003D 22               [ 8]  120 	ld	(hl+), a
                                    121 ;src/dng_crawling.c:24: unsigned char r=0x00;
      00003E AF               [ 4]  122 	xor	a, a
      00003F 5F               [ 4]  123 	ld	e,a
      000040 22               [ 8]  124 	ld	(hl+), a
      000041 36 00            [12]  125 	ld	(hl), #0x00
                                    126 ;src/dng_crawling.c:26: switch(player_dir){
      000043 F8 13            [12]  127 	ldhl	sp,	#19
      000045 7E               [ 8]  128 	ld	a, (hl)
      000046 3D               [ 4]  129 	dec	a
      000047 3E 01            [ 8]  130 	ld	a, #0x01
      000049 28 01            [12]  131 	jr	Z, 00416$
      00004B AF               [ 4]  132 	xor	a, a
      00004C                        133 00416$:
      00004C F8 04            [12]  134 	ldhl	sp,	#4
      00004E 77               [ 8]  135 	ld	(hl), a
      00004F F8 13            [12]  136 	ldhl	sp,	#19
      000051 7E               [ 8]  137 	ld	a, (hl)
      000052 D6 02            [ 8]  138 	sub	a, #0x02
      000054 3E 01            [ 8]  139 	ld	a, #0x01
      000056 28 01            [12]  140 	jr	Z, 00418$
      000058 AF               [ 4]  141 	xor	a, a
      000059                        142 00418$:
      000059 F8 05            [12]  143 	ldhl	sp,	#5
      00005B 77               [ 8]  144 	ld	(hl), a
      00005C F8 13            [12]  145 	ldhl	sp,	#19
      00005E 7E               [ 8]  146 	ld	a, (hl)
      00005F D6 03            [ 8]  147 	sub	a, #0x03
      000061 3E 01            [ 8]  148 	ld	a, #0x01
      000063 28 01            [12]  149 	jr	Z, 00420$
      000065 AF               [ 4]  150 	xor	a, a
      000066                        151 00420$:
      000066 F8 06            [12]  152 	ldhl	sp,	#6
      000068 77               [ 8]  153 	ld	(hl), a
                                    154 ;src/dng_crawling.c:35: l = return_value(dng,dungeon_width,dungeon_hieght,player_x-1, player_y-dist);
      000069 F8 11            [12]  155 	ldhl	sp,	#17
      00006B 46               [ 8]  156 	ld	b, (hl)
      00006C 78               [ 4]  157 	ld	a, b
      00006D 3D               [ 4]  158 	dec	a
      00006E F8 07            [12]  159 	ldhl	sp,	#7
                                    160 ;src/dng_crawling.c:36: r = return_value(dng,dungeon_width,dungeon_hieght,player_x+1, player_y-dist);
      000070 22               [ 8]  161 	ld	(hl+), a
      000071 78               [ 4]  162 	ld	a, b
      000072 3C               [ 4]  163 	inc	a
      000073 77               [ 8]  164 	ld	(hl), a
                                    165 ;src/dng_crawling.c:26: switch(player_dir){
      000074 F8 13            [12]  166 	ldhl	sp,	#19
      000076 7E               [ 8]  167 	ld	a, (hl)
      000077 B7               [ 4]  168 	or	a, a
      000078 28 21            [12]  169 	jr	Z, 00101$
                                    170 ;src/dng_crawling.c:47: l = return_value(dng,dungeon_width,dungeon_hieght,player_x+dist, player_y-1);
      00007A F8 12            [12]  171 	ldhl	sp,	#18
      00007C 46               [ 8]  172 	ld	b, (hl)
      00007D 78               [ 4]  173 	ld	a, b
      00007E 3D               [ 4]  174 	dec	a
      00007F F8 09            [12]  175 	ldhl	sp,	#9
                                    176 ;src/dng_crawling.c:48: r = return_value(dng,dungeon_width,dungeon_hieght,player_x+dist, player_y+1);
      000081 22               [ 8]  177 	ld	(hl+), a
      000082 78               [ 4]  178 	ld	a, b
      000083 3C               [ 4]  179 	inc	a
      000084 77               [ 8]  180 	ld	(hl), a
                                    181 ;src/dng_crawling.c:26: switch(player_dir){
      000085 F8 04            [12]  182 	ldhl	sp,	#4
      000087 7E               [ 8]  183 	ld	a, (hl)
      000088 B7               [ 4]  184 	or	a, a
      000089 C2r11r01         [16]  185 	jp	NZ, 00107$
      00008C 23               [ 8]  186 	inc	hl
      00008D 7E               [ 8]  187 	ld	a, (hl)
      00008E B7               [ 4]  188 	or	a, a
      00008F C2r84r01         [16]  189 	jp	NZ, 00113$
      000092 23               [ 8]  190 	inc	hl
      000093 7E               [ 8]  191 	ld	a, (hl)
      000094 B7               [ 4]  192 	or	a, a
      000095 C2rF2r01         [16]  193 	jp	NZ, 00119$
      000098 C3r62r02         [16]  194 	jp	00125$
                                    195 ;src/dng_crawling.c:27: case 0:
      00009B                        196 00101$:
                                    197 ;src/dng_crawling.c:28: for ( a=1; a<=4; a++){
      00009B F8 0A            [12]  198 	ldhl	sp,	#10
      00009D 36 01            [12]  199 	ld	(hl), #0x01
      00009F 56               [ 8]  200 	ld	d, (hl)
      0000A0                        201 00191$:
                                    202 ;src/dng_crawling.c:29: w = return_value(dng,dungeon_width,dungeon_hieght,player_x, player_y-a);
      0000A0 F8 12            [12]  203 	ldhl	sp,	#18
      0000A2 3A               [ 8]  204 	ld	a, (hl-)
      0000A3 92               [ 4]  205 	sub	a, d
      0000A4 C5               [16]  206 	push	bc
      0000A5 D5               [16]  207 	push	de
      0000A6 F5               [16]  208 	push	af
      0000A7 33               [ 8]  209 	inc	sp
      0000A8 3A               [ 8]  210 	ld	a, (hl-)
      0000A9 57               [ 4]  211 	ld	d, a
      0000AA 5E               [ 8]  212 	ld	e, (hl)
      0000AB D5               [16]  213 	push	de
      0000AC F8 12            [12]  214 	ldhl	sp,	#18
      0000AE 2A               [ 8]  215 	ld	a, (hl+)
      0000AF 5E               [ 8]  216 	ld	e, (hl)
      0000B0 23               [ 8]  217 	inc	hl
      0000B1 56               [ 8]  218 	ld	d, (hl)
      0000B2 CDr00r00         [24]  219 	call	_return_value
      0000B5 D1               [12]  220 	pop	de
      0000B6 C1               [12]  221 	pop	bc
                                    222 ;src/dng_crawling.c:30: if( w != 0x00 && w != 0x01 && dist == 0){
      0000B7 5F               [ 4]  223 	ld	e,a
      0000B8 B7               [ 4]  224 	or	a,a
      0000B9 28 0B            [12]  225 	jr	Z, 00192$
      0000BB 3D               [ 4]  226 	dec	a
      0000BC 28 08            [12]  227 	jr	Z, 00192$
                                    228 ;src/dng_crawling.c:31: dist = a;
      0000BE F8 0A            [12]  229 	ldhl	sp,	#10
      0000C0 7E               [ 8]  230 	ld	a, (hl)
      0000C1 F8 00            [12]  231 	ldhl	sp,	#0
      0000C3 77               [ 8]  232 	ld	(hl), a
                                    233 ;src/dng_crawling.c:32: break;
      0000C4 18 09            [12]  234 	jr	00106$
      0000C6                        235 00192$:
                                    236 ;src/dng_crawling.c:28: for ( a=1; a<=4; a++){
      0000C6 14               [ 4]  237 	inc	d
      0000C7 F8 0A            [12]  238 	ldhl	sp,	#10
      0000C9 72               [ 8]  239 	ld	(hl), d
      0000CA 3E 04            [ 8]  240 	ld	a, #0x04
      0000CC 92               [ 4]  241 	sub	a, d
      0000CD 30 D1            [12]  242 	jr	NC, 00191$
      0000CF                        243 00106$:
                                    244 ;src/dng_crawling.c:35: l = return_value(dng,dungeon_width,dungeon_hieght,player_x-1, player_y-dist);
      0000CF F8 12            [12]  245 	ldhl	sp,	#18
      0000D1 7E               [ 8]  246 	ld	a, (hl)
      0000D2 F8 00            [12]  247 	ldhl	sp,	#0
      0000D4 96               [ 8]  248 	sub	a, (hl)
      0000D5 47               [ 4]  249 	ld	b, a
      0000D6 C5               [16]  250 	push	bc
      0000D7 D5               [16]  251 	push	de
      0000D8 C5               [16]  252 	push	bc
      0000D9 33               [ 8]  253 	inc	sp
      0000DA F8 0C            [12]  254 	ldhl	sp,	#12
      0000DC 7E               [ 8]  255 	ld	a, (hl)
      0000DD F5               [16]  256 	push	af
      0000DE 33               [ 8]  257 	inc	sp
      0000DF F8 16            [12]  258 	ldhl	sp,	#22
      0000E1 7E               [ 8]  259 	ld	a, (hl)
      0000E2 F5               [16]  260 	push	af
      0000E3 33               [ 8]  261 	inc	sp
      0000E4 F8 12            [12]  262 	ldhl	sp,	#18
      0000E6 2A               [ 8]  263 	ld	a, (hl+)
      0000E7 5E               [ 8]  264 	ld	e, (hl)
      0000E8 23               [ 8]  265 	inc	hl
      0000E9 56               [ 8]  266 	ld	d, (hl)
      0000EA CDr00r00         [24]  267 	call	_return_value
      0000ED D1               [12]  268 	pop	de
      0000EE C1               [12]  269 	pop	bc
      0000EF F8 02            [12]  270 	ldhl	sp,	#2
      0000F1 77               [ 8]  271 	ld	(hl), a
                                    272 ;src/dng_crawling.c:36: r = return_value(dng,dungeon_width,dungeon_hieght,player_x+1, player_y-dist);
      0000F2 C5               [16]  273 	push	bc
      0000F3 D5               [16]  274 	push	de
      0000F4 C5               [16]  275 	push	bc
      0000F5 33               [ 8]  276 	inc	sp
      0000F6 F8 0D            [12]  277 	ldhl	sp,	#13
      0000F8 7E               [ 8]  278 	ld	a, (hl)
      0000F9 F5               [16]  279 	push	af
      0000FA 33               [ 8]  280 	inc	sp
      0000FB F8 16            [12]  281 	ldhl	sp,	#22
      0000FD 7E               [ 8]  282 	ld	a, (hl)
      0000FE F5               [16]  283 	push	af
      0000FF 33               [ 8]  284 	inc	sp
      000100 F8 12            [12]  285 	ldhl	sp,	#18
      000102 2A               [ 8]  286 	ld	a, (hl+)
      000103 5E               [ 8]  287 	ld	e, (hl)
      000104 23               [ 8]  288 	inc	hl
      000105 56               [ 8]  289 	ld	d, (hl)
      000106 CDr00r00         [24]  290 	call	_return_value
      000109 D1               [12]  291 	pop	de
      00010A C1               [12]  292 	pop	bc
      00010B F8 03            [12]  293 	ldhl	sp,	#3
      00010D 77               [ 8]  294 	ld	(hl), a
                                    295 ;src/dng_crawling.c:38: break;
      00010E C3r62r02         [16]  296 	jp	00125$
                                    297 ;src/dng_crawling.c:39: case 1:
      000111                        298 00107$:
                                    299 ;src/dng_crawling.c:40: for ( a=1; a<=4; a++){
      000111 06 01            [ 8]  300 	ld	b, #0x01
      000113 50               [ 4]  301 	ld	d, b
      000114                        302 00193$:
                                    303 ;src/dng_crawling.c:41: w = return_value(dng,dungeon_width,dungeon_hieght,player_x+a, player_y);
      000114 F8 11            [12]  304 	ldhl	sp,	#17
      000116 2A               [ 8]  305 	ld	a, (hl+)
      000117 82               [ 4]  306 	add	a, d
      000118 C5               [16]  307 	push	bc
      000119 D5               [16]  308 	push	de
      00011A 66               [ 8]  309 	ld	h, (hl)
                                    310 ;	spillPairReg hl
                                    311 ;	spillPairReg hl
      00011B E5               [16]  312 	push	hl
      00011C 33               [ 8]  313 	inc	sp
      00011D F5               [16]  314 	push	af
      00011E 33               [ 8]  315 	inc	sp
      00011F F8 16            [12]  316 	ldhl	sp,	#22
      000121 7E               [ 8]  317 	ld	a, (hl)
      000122 F5               [16]  318 	push	af
      000123 33               [ 8]  319 	inc	sp
      000124 F8 12            [12]  320 	ldhl	sp,	#18
      000126 2A               [ 8]  321 	ld	a, (hl+)
      000127 5E               [ 8]  322 	ld	e, (hl)
      000128 23               [ 8]  323 	inc	hl
      000129 56               [ 8]  324 	ld	d, (hl)
      00012A CDr00r00         [24]  325 	call	_return_value
      00012D D1               [12]  326 	pop	de
      00012E C1               [12]  327 	pop	bc
                                    328 ;src/dng_crawling.c:42: if( w != 0x00 && w != 0x01 && dist == 0){
      00012F 5F               [ 4]  329 	ld	e,a
      000130 B7               [ 4]  330 	or	a,a
      000131 28 08            [12]  331 	jr	Z, 00194$
      000133 3D               [ 4]  332 	dec	a
      000134 28 05            [12]  333 	jr	Z, 00194$
                                    334 ;src/dng_crawling.c:43: dist = a;
      000136 F8 00            [12]  335 	ldhl	sp,	#0
      000138 70               [ 8]  336 	ld	(hl), b
                                    337 ;src/dng_crawling.c:44: break;
      000139 18 07            [12]  338 	jr	00112$
      00013B                        339 00194$:
                                    340 ;src/dng_crawling.c:40: for ( a=1; a<=4; a++){
      00013B 14               [ 4]  341 	inc	d
      00013C 42               [ 4]  342 	ld	b, d
      00013D 3E 04            [ 8]  343 	ld	a, #0x04
      00013F 92               [ 4]  344 	sub	a, d
      000140 30 D2            [12]  345 	jr	NC, 00193$
      000142                        346 00112$:
                                    347 ;src/dng_crawling.c:47: l = return_value(dng,dungeon_width,dungeon_hieght,player_x+dist, player_y-1);
      000142 F8 11            [12]  348 	ldhl	sp,	#17
      000144 7E               [ 8]  349 	ld	a, (hl)
      000145 F8 00            [12]  350 	ldhl	sp,	#0
      000147 86               [ 8]  351 	add	a, (hl)
      000148 47               [ 4]  352 	ld	b, a
      000149 C5               [16]  353 	push	bc
      00014A D5               [16]  354 	push	de
      00014B F8 0D            [12]  355 	ldhl	sp,	#13
      00014D 7E               [ 8]  356 	ld	a, (hl)
      00014E F5               [16]  357 	push	af
      00014F 33               [ 8]  358 	inc	sp
      000150 C5               [16]  359 	push	bc
      000151 33               [ 8]  360 	inc	sp
      000152 F8 16            [12]  361 	ldhl	sp,	#22
      000154 7E               [ 8]  362 	ld	a, (hl)
      000155 F5               [16]  363 	push	af
      000156 33               [ 8]  364 	inc	sp
      000157 F8 12            [12]  365 	ldhl	sp,	#18
      000159 2A               [ 8]  366 	ld	a, (hl+)
      00015A 5E               [ 8]  367 	ld	e, (hl)
      00015B 23               [ 8]  368 	inc	hl
      00015C 56               [ 8]  369 	ld	d, (hl)
      00015D CDr00r00         [24]  370 	call	_return_value
      000160 D1               [12]  371 	pop	de
      000161 C1               [12]  372 	pop	bc
      000162 F8 02            [12]  373 	ldhl	sp,	#2
      000164 77               [ 8]  374 	ld	(hl), a
                                    375 ;src/dng_crawling.c:48: r = return_value(dng,dungeon_width,dungeon_hieght,player_x+dist, player_y+1);
      000165 C5               [16]  376 	push	bc
      000166 D5               [16]  377 	push	de
      000167 F8 0E            [12]  378 	ldhl	sp,	#14
      000169 7E               [ 8]  379 	ld	a, (hl)
      00016A F5               [16]  380 	push	af
      00016B 33               [ 8]  381 	inc	sp
      00016C C5               [16]  382 	push	bc
      00016D 33               [ 8]  383 	inc	sp
      00016E F8 16            [12]  384 	ldhl	sp,	#22
      000170 7E               [ 8]  385 	ld	a, (hl)
      000171 F5               [16]  386 	push	af
      000172 33               [ 8]  387 	inc	sp
      000173 F8 12            [12]  388 	ldhl	sp,	#18
      000175 2A               [ 8]  389 	ld	a, (hl+)
      000176 5E               [ 8]  390 	ld	e, (hl)
      000177 23               [ 8]  391 	inc	hl
      000178 56               [ 8]  392 	ld	d, (hl)
      000179 CDr00r00         [24]  393 	call	_return_value
      00017C D1               [12]  394 	pop	de
      00017D C1               [12]  395 	pop	bc
      00017E F8 03            [12]  396 	ldhl	sp,	#3
      000180 77               [ 8]  397 	ld	(hl), a
                                    398 ;src/dng_crawling.c:49: break;
      000181 C3r62r02         [16]  399 	jp	00125$
                                    400 ;src/dng_crawling.c:50: case 2:
      000184                        401 00113$:
                                    402 ;src/dng_crawling.c:51: for ( a=1; a<=4; a++){
      000184 06 01            [ 8]  403 	ld	b, #0x01
      000186 50               [ 4]  404 	ld	d, b
      000187                        405 00195$:
                                    406 ;src/dng_crawling.c:52: w = return_value(dng,dungeon_width,dungeon_hieght,player_x, player_y+a);
      000187 F8 12            [12]  407 	ldhl	sp,	#18
      000189 3A               [ 8]  408 	ld	a, (hl-)
      00018A 82               [ 4]  409 	add	a, d
      00018B C5               [16]  410 	push	bc
      00018C D5               [16]  411 	push	de
      00018D F5               [16]  412 	push	af
      00018E 33               [ 8]  413 	inc	sp
      00018F 3A               [ 8]  414 	ld	a, (hl-)
      000190 57               [ 4]  415 	ld	d, a
      000191 5E               [ 8]  416 	ld	e, (hl)
      000192 D5               [16]  417 	push	de
      000193 F8 12            [12]  418 	ldhl	sp,	#18
      000195 2A               [ 8]  419 	ld	a, (hl+)
      000196 5E               [ 8]  420 	ld	e, (hl)
      000197 23               [ 8]  421 	inc	hl
      000198 56               [ 8]  422 	ld	d, (hl)
      000199 CDr00r00         [24]  423 	call	_return_value
      00019C D1               [12]  424 	pop	de
      00019D C1               [12]  425 	pop	bc
                                    426 ;src/dng_crawling.c:53: if( w != 0x00 && w != 0x01 && dist == 0){
      00019E 5F               [ 4]  427 	ld	e,a
      00019F B7               [ 4]  428 	or	a,a
      0001A0 28 08            [12]  429 	jr	Z, 00196$
      0001A2 3D               [ 4]  430 	dec	a
      0001A3 28 05            [12]  431 	jr	Z, 00196$
                                    432 ;src/dng_crawling.c:54: dist = a;
      0001A5 F8 00            [12]  433 	ldhl	sp,	#0
      0001A7 70               [ 8]  434 	ld	(hl), b
                                    435 ;src/dng_crawling.c:55: break;
      0001A8 18 07            [12]  436 	jr	00118$
      0001AA                        437 00196$:
                                    438 ;src/dng_crawling.c:51: for ( a=1; a<=4; a++){
      0001AA 14               [ 4]  439 	inc	d
      0001AB 42               [ 4]  440 	ld	b, d
      0001AC 3E 04            [ 8]  441 	ld	a, #0x04
      0001AE 92               [ 4]  442 	sub	a, d
      0001AF 30 D6            [12]  443 	jr	NC, 00195$
      0001B1                        444 00118$:
                                    445 ;src/dng_crawling.c:58: l = return_value(dng,dungeon_width,dungeon_hieght,player_x+1, player_y+dist);
      0001B1 F8 12            [12]  446 	ldhl	sp,	#18
      0001B3 7E               [ 8]  447 	ld	a, (hl)
      0001B4 F8 00            [12]  448 	ldhl	sp,	#0
      0001B6 86               [ 8]  449 	add	a, (hl)
      0001B7 47               [ 4]  450 	ld	b, a
      0001B8 C5               [16]  451 	push	bc
      0001B9 D5               [16]  452 	push	de
      0001BA C5               [16]  453 	push	bc
      0001BB 33               [ 8]  454 	inc	sp
      0001BC F8 0D            [12]  455 	ldhl	sp,	#13
      0001BE 7E               [ 8]  456 	ld	a, (hl)
      0001BF F5               [16]  457 	push	af
      0001C0 33               [ 8]  458 	inc	sp
      0001C1 F8 16            [12]  459 	ldhl	sp,	#22
      0001C3 7E               [ 8]  460 	ld	a, (hl)
      0001C4 F5               [16]  461 	push	af
      0001C5 33               [ 8]  462 	inc	sp
      0001C6 F8 12            [12]  463 	ldhl	sp,	#18
      0001C8 2A               [ 8]  464 	ld	a, (hl+)
      0001C9 5E               [ 8]  465 	ld	e, (hl)
      0001CA 23               [ 8]  466 	inc	hl
      0001CB 56               [ 8]  467 	ld	d, (hl)
      0001CC CDr00r00         [24]  468 	call	_return_value
      0001CF D1               [12]  469 	pop	de
      0001D0 C1               [12]  470 	pop	bc
      0001D1 F8 02            [12]  471 	ldhl	sp,	#2
      0001D3 77               [ 8]  472 	ld	(hl), a
                                    473 ;src/dng_crawling.c:59: r = return_value(dng,dungeon_width,dungeon_hieght,player_x-1, player_y+dist);
      0001D4 C5               [16]  474 	push	bc
      0001D5 D5               [16]  475 	push	de
      0001D6 C5               [16]  476 	push	bc
      0001D7 33               [ 8]  477 	inc	sp
      0001D8 F8 0C            [12]  478 	ldhl	sp,	#12
      0001DA 7E               [ 8]  479 	ld	a, (hl)
      0001DB F5               [16]  480 	push	af
      0001DC 33               [ 8]  481 	inc	sp
      0001DD F8 16            [12]  482 	ldhl	sp,	#22
      0001DF 7E               [ 8]  483 	ld	a, (hl)
      0001E0 F5               [16]  484 	push	af
      0001E1 33               [ 8]  485 	inc	sp
      0001E2 F8 12            [12]  486 	ldhl	sp,	#18
      0001E4 2A               [ 8]  487 	ld	a, (hl+)
      0001E5 5E               [ 8]  488 	ld	e, (hl)
      0001E6 23               [ 8]  489 	inc	hl
      0001E7 56               [ 8]  490 	ld	d, (hl)
      0001E8 CDr00r00         [24]  491 	call	_return_value
      0001EB D1               [12]  492 	pop	de
      0001EC C1               [12]  493 	pop	bc
      0001ED F8 03            [12]  494 	ldhl	sp,	#3
      0001EF 77               [ 8]  495 	ld	(hl), a
                                    496 ;src/dng_crawling.c:60: break;
      0001F0 18 70            [12]  497 	jr	00125$
                                    498 ;src/dng_crawling.c:61: case 3:
      0001F2                        499 00119$:
                                    500 ;src/dng_crawling.c:62: for ( a=1; a<=4; a++){
      0001F2 06 01            [ 8]  501 	ld	b, #0x01
      0001F4 50               [ 4]  502 	ld	d, b
      0001F5                        503 00197$:
                                    504 ;src/dng_crawling.c:63: w = return_value(dng,dungeon_width,dungeon_hieght,player_x-a, player_y);
      0001F5 F8 11            [12]  505 	ldhl	sp,	#17
      0001F7 2A               [ 8]  506 	ld	a, (hl+)
      0001F8 92               [ 4]  507 	sub	a, d
      0001F9 C5               [16]  508 	push	bc
      0001FA D5               [16]  509 	push	de
      0001FB 66               [ 8]  510 	ld	h, (hl)
                                    511 ;	spillPairReg hl
                                    512 ;	spillPairReg hl
      0001FC E5               [16]  513 	push	hl
      0001FD 33               [ 8]  514 	inc	sp
      0001FE F5               [16]  515 	push	af
      0001FF 33               [ 8]  516 	inc	sp
      000200 F8 16            [12]  517 	ldhl	sp,	#22
      000202 7E               [ 8]  518 	ld	a, (hl)
      000203 F5               [16]  519 	push	af
      000204 33               [ 8]  520 	inc	sp
      000205 F8 12            [12]  521 	ldhl	sp,	#18
      000207 2A               [ 8]  522 	ld	a, (hl+)
      000208 5E               [ 8]  523 	ld	e, (hl)
      000209 23               [ 8]  524 	inc	hl
      00020A 56               [ 8]  525 	ld	d, (hl)
      00020B CDr00r00         [24]  526 	call	_return_value
      00020E D1               [12]  527 	pop	de
      00020F C1               [12]  528 	pop	bc
                                    529 ;src/dng_crawling.c:64: if( w != 0x00 && w != 0x01 && dist == 0){
      000210 5F               [ 4]  530 	ld	e,a
      000211 B7               [ 4]  531 	or	a,a
      000212 28 08            [12]  532 	jr	Z, 00198$
      000214 3D               [ 4]  533 	dec	a
      000215 28 05            [12]  534 	jr	Z, 00198$
                                    535 ;src/dng_crawling.c:65: dist = a;
      000217 F8 00            [12]  536 	ldhl	sp,	#0
      000219 70               [ 8]  537 	ld	(hl), b
                                    538 ;src/dng_crawling.c:66: break;
      00021A 18 07            [12]  539 	jr	00124$
      00021C                        540 00198$:
                                    541 ;src/dng_crawling.c:62: for ( a=1; a<=4; a++){
      00021C 14               [ 4]  542 	inc	d
      00021D 42               [ 4]  543 	ld	b, d
      00021E 3E 04            [ 8]  544 	ld	a, #0x04
      000220 92               [ 4]  545 	sub	a, d
      000221 30 D2            [12]  546 	jr	NC, 00197$
      000223                        547 00124$:
                                    548 ;src/dng_crawling.c:69: l = return_value(dng,dungeon_width,dungeon_hieght,player_x-dist, player_y+1);
      000223 F8 11            [12]  549 	ldhl	sp,	#17
      000225 7E               [ 8]  550 	ld	a, (hl)
      000226 F8 00            [12]  551 	ldhl	sp,	#0
      000228 96               [ 8]  552 	sub	a, (hl)
      000229 47               [ 4]  553 	ld	b, a
      00022A C5               [16]  554 	push	bc
      00022B D5               [16]  555 	push	de
      00022C F8 0E            [12]  556 	ldhl	sp,	#14
      00022E 7E               [ 8]  557 	ld	a, (hl)
      00022F F5               [16]  558 	push	af
      000230 33               [ 8]  559 	inc	sp
      000231 C5               [16]  560 	push	bc
      000232 33               [ 8]  561 	inc	sp
      000233 F8 16            [12]  562 	ldhl	sp,	#22
      000235 7E               [ 8]  563 	ld	a, (hl)
      000236 F5               [16]  564 	push	af
      000237 33               [ 8]  565 	inc	sp
      000238 F8 12            [12]  566 	ldhl	sp,	#18
      00023A 2A               [ 8]  567 	ld	a, (hl+)
      00023B 5E               [ 8]  568 	ld	e, (hl)
      00023C 23               [ 8]  569 	inc	hl
      00023D 56               [ 8]  570 	ld	d, (hl)
      00023E CDr00r00         [24]  571 	call	_return_value
      000241 D1               [12]  572 	pop	de
      000242 C1               [12]  573 	pop	bc
      000243 F8 02            [12]  574 	ldhl	sp,	#2
      000245 77               [ 8]  575 	ld	(hl), a
                                    576 ;src/dng_crawling.c:70: r = return_value(dng,dungeon_width,dungeon_hieght,player_x-dist, player_y-1);
      000246 C5               [16]  577 	push	bc
      000247 D5               [16]  578 	push	de
      000248 F8 0D            [12]  579 	ldhl	sp,	#13
      00024A 7E               [ 8]  580 	ld	a, (hl)
      00024B F5               [16]  581 	push	af
      00024C 33               [ 8]  582 	inc	sp
      00024D C5               [16]  583 	push	bc
      00024E 33               [ 8]  584 	inc	sp
      00024F F8 16            [12]  585 	ldhl	sp,	#22
      000251 7E               [ 8]  586 	ld	a, (hl)
      000252 F5               [16]  587 	push	af
      000253 33               [ 8]  588 	inc	sp
      000254 F8 12            [12]  589 	ldhl	sp,	#18
      000256 2A               [ 8]  590 	ld	a, (hl+)
      000257 5E               [ 8]  591 	ld	e, (hl)
      000258 23               [ 8]  592 	inc	hl
      000259 56               [ 8]  593 	ld	d, (hl)
      00025A CDr00r00         [24]  594 	call	_return_value
      00025D D1               [12]  595 	pop	de
      00025E C1               [12]  596 	pop	bc
      00025F F8 03            [12]  597 	ldhl	sp,	#3
      000261 77               [ 8]  598 	ld	(hl), a
                                    599 ;src/dng_crawling.c:72: }
      000262                        600 00125$:
                                    601 ;src/dng_crawling.c:76: if( w == 0x03 && player_dir == 0|| w == 0x04 && player_dir == 1 ||w == 0x05 && player_dir == 2 || w==0x06 && player_dir == 3){
      000262 7B               [ 4]  602 	ld	a, e
      000263 D6 03            [ 8]  603 	sub	a, #0x03
      000265 20 06            [12]  604 	jr	NZ, 00131$
      000267 F8 13            [12]  605 	ldhl	sp,	#19
      000269 7E               [ 8]  606 	ld	a, (hl)
      00026A B7               [ 4]  607 	or	a, a
      00026B 28 21            [12]  608 	jr	Z, 00126$
      00026D                        609 00131$:
      00026D 7B               [ 4]  610 	ld	a, e
      00026E D6 04            [ 8]  611 	sub	a, #0x04
      000270 20 06            [12]  612 	jr	NZ, 00133$
      000272 F8 04            [12]  613 	ldhl	sp,	#4
      000274 7E               [ 8]  614 	ld	a, (hl)
      000275 B7               [ 4]  615 	or	a, a
      000276 20 16            [12]  616 	jr	NZ, 00126$
      000278                        617 00133$:
      000278 7B               [ 4]  618 	ld	a, e
      000279 D6 05            [ 8]  619 	sub	a, #0x05
      00027B 20 06            [12]  620 	jr	NZ, 00135$
      00027D F8 05            [12]  621 	ldhl	sp,	#5
      00027F 7E               [ 8]  622 	ld	a, (hl)
      000280 B7               [ 4]  623 	or	a, a
      000281 20 0B            [12]  624 	jr	NZ, 00126$
      000283                        625 00135$:
      000283 7B               [ 4]  626 	ld	a, e
      000284 D6 06            [ 8]  627 	sub	a, #0x06
      000286 20 0A            [12]  628 	jr	NZ, 00127$
      000288 F8 06            [12]  629 	ldhl	sp,	#6
      00028A 7E               [ 8]  630 	ld	a, (hl)
      00028B B7               [ 4]  631 	or	a, a
      00028C 28 04            [12]  632 	jr	Z, 00127$
      00028E                        633 00126$:
                                    634 ;src/dng_crawling.c:78: is_door = true;
      00028E 1E 01            [ 8]  635 	ld	e, #0x01
      000290 18 02            [12]  636 	jr	00128$
      000292                        637 00127$:
                                    638 ;src/dng_crawling.c:81: is_door = false;
      000292 1E 00            [ 8]  639 	ld	e, #0x00
      000294                        640 00128$:
                                    641 ;src/dng_crawling.c:83: if(l!=0x00 && l!=0x01){
      000294 F8 02            [12]  642 	ldhl	sp,	#2
      000296 7E               [ 8]  643 	ld	a, (hl)
      000297 B7               [ 4]  644 	or	a, a
      000298 28 06            [12]  645 	jr	Z, 00137$
      00029A 7E               [ 8]  646 	ld	a, (hl)
      00029B 3D               [ 4]  647 	dec	a
      00029C 28 02            [12]  648 	jr	Z, 00137$
                                    649 ;src/dng_crawling.c:84: left_is_wall = true;
      00029E 0E 01            [ 8]  650 	ld	c, #0x01
      0002A0                        651 00137$:
                                    652 ;src/dng_crawling.c:86: if(r!=0x00 && r!=0x01){
      0002A0 F8 03            [12]  653 	ldhl	sp,	#3
      0002A2 7E               [ 8]  654 	ld	a, (hl)
      0002A3 B7               [ 4]  655 	or	a, a
      0002A4 28 08            [12]  656 	jr	Z, 00140$
      0002A6 7E               [ 8]  657 	ld	a, (hl)
      0002A7 3D               [ 4]  658 	dec	a
      0002A8 28 04            [12]  659 	jr	Z, 00140$
                                    660 ;src/dng_crawling.c:87: right_is_wall = true;
      0002AA F8 01            [12]  661 	ldhl	sp,	#1
      0002AC 36 01            [12]  662 	ld	(hl), #0x01
      0002AE                        663 00140$:
                                    664 ;src/dng_crawling.c:90: switch (dist){
      0002AE F8 00            [12]  665 	ldhl	sp,	#0
      0002B0 7E               [ 8]  666 	ld	a, (hl)
      0002B1 3D               [ 4]  667 	dec	a
      0002B2 28 13            [12]  668 	jr	Z, 00142$
      0002B4 F8 00            [12]  669 	ldhl	sp,	#0
      0002B6 7E               [ 8]  670 	ld	a, (hl)
      0002B7 D6 02            [ 8]  671 	sub	a, #0x02
      0002B9 CAr87r03         [16]  672 	jp	Z,00158$
      0002BC F8 00            [12]  673 	ldhl	sp,	#0
      0002BE 7E               [ 8]  674 	ld	a, (hl)
      0002BF D6 03            [ 8]  675 	sub	a, #0x03
      0002C1 CAr47r04         [16]  676 	jp	Z,00174$
      0002C4 C3r01r05         [16]  677 	jp	00199$
                                    678 ;src/dng_crawling.c:91: case 1:
      0002C7                        679 00142$:
                                    680 ;src/dng_crawling.c:92: if(is_door){
      0002C7 CB 43            [ 8]  681 	bit	0, e
      0002C9 28 5E            [12]  682 	jr	Z, 00156$
                                    683 ;src/dng_crawling.c:93: if(left_is_wall){
      0002CB CB 41            [ 8]  684 	bit	0, c
      0002CD 28 13            [12]  685 	jr	Z, 00144$
                                    686 ;src/dng_crawling.c:94: set_bkg_tiles(4,3,6,9,door1_left_half_bkg);
      0002CF 11r00r00         [12]  687 	ld	de, #_door1_left_half_bkg
      0002D2 D5               [16]  688 	push	de
      0002D3 21 06 09         [12]  689 	ld	hl, #0x906
      0002D6 E5               [16]  690 	push	hl
      0002D7 21 04 03         [12]  691 	ld	hl, #0x304
      0002DA E5               [16]  692 	push	hl
      0002DB CDr00r00         [24]  693 	call	_set_bkg_tiles
      0002DE E8 06            [16]  694 	add	sp, #6
      0002E0 18 11            [12]  695 	jr	00145$
      0002E2                        696 00144$:
                                    697 ;src/dng_crawling.c:96: set_bkg_tiles(4,3,6,9,door1_left_half_c_bkg);
      0002E2 11r00r00         [12]  698 	ld	de, #_door1_left_half_c_bkg
      0002E5 D5               [16]  699 	push	de
      0002E6 21 06 09         [12]  700 	ld	hl, #0x906
      0002E9 E5               [16]  701 	push	hl
      0002EA 21 04 03         [12]  702 	ld	hl, #0x304
      0002ED E5               [16]  703 	push	hl
      0002EE CDr00r00         [24]  704 	call	_set_bkg_tiles
      0002F1 E8 06            [16]  705 	add	sp, #6
      0002F3                        706 00145$:
                                    707 ;src/dng_crawling.c:98: if(right_is_wall){
      0002F3 F8 01            [12]  708 	ldhl	sp,	#1
      0002F5 CB 46            [12]  709 	bit	0, (hl)
      0002F7 28 18            [12]  710 	jr	Z, 00147$
                                    711 ;src/dng_crawling.c:99: set_bkg_tiles(10,3,6,9,door1_right_half_bkg);
      0002F9 11r00r00         [12]  712 	ld	de, #_door1_right_half_bkg
      0002FC D5               [16]  713 	push	de
      0002FD 21 06 09         [12]  714 	ld	hl, #0x906
      000300 E5               [16]  715 	push	hl
      000301 3E 03            [ 8]  716 	ld	a, #0x03
      000303 F5               [16]  717 	push	af
      000304 33               [ 8]  718 	inc	sp
      000305 3E 0A            [ 8]  719 	ld	a, #0x0a
      000307 F5               [16]  720 	push	af
      000308 33               [ 8]  721 	inc	sp
      000309 CDr00r00         [24]  722 	call	_set_bkg_tiles
      00030C E8 06            [16]  723 	add	sp, #6
      00030E C3r01r05         [16]  724 	jp	00199$
      000311                        725 00147$:
                                    726 ;src/dng_crawling.c:101: set_bkg_tiles(10,3,6,9,door1_right_half_c_bkg);
      000311 11r00r00         [12]  727 	ld	de, #_door1_right_half_c_bkg
      000314 D5               [16]  728 	push	de
      000315 21 06 09         [12]  729 	ld	hl, #0x906
      000318 E5               [16]  730 	push	hl
      000319 3E 03            [ 8]  731 	ld	a, #0x03
      00031B F5               [16]  732 	push	af
      00031C 33               [ 8]  733 	inc	sp
      00031D 3E 0A            [ 8]  734 	ld	a, #0x0a
      00031F F5               [16]  735 	push	af
      000320 33               [ 8]  736 	inc	sp
      000321 CDr00r00         [24]  737 	call	_set_bkg_tiles
      000324 E8 06            [16]  738 	add	sp, #6
      000326 C3r01r05         [16]  739 	jp	00199$
      000329                        740 00156$:
                                    741 ;src/dng_crawling.c:104: if(left_is_wall){
      000329 CB 41            [ 8]  742 	bit	0, c
      00032B 28 13            [12]  743 	jr	Z, 00150$
                                    744 ;src/dng_crawling.c:105: set_bkg_tiles(4,3,6,9,wall1_half_bkg);
      00032D 11r00r00         [12]  745 	ld	de, #_wall1_half_bkg
      000330 D5               [16]  746 	push	de
      000331 21 06 09         [12]  747 	ld	hl, #0x906
      000334 E5               [16]  748 	push	hl
      000335 21 04 03         [12]  749 	ld	hl, #0x304
      000338 E5               [16]  750 	push	hl
      000339 CDr00r00         [24]  751 	call	_set_bkg_tiles
      00033C E8 06            [16]  752 	add	sp, #6
      00033E 18 11            [12]  753 	jr	00151$
      000340                        754 00150$:
                                    755 ;src/dng_crawling.c:107: set_bkg_tiles(4,3,6,9,wall1_left_half_c_bkg);
      000340 11r00r00         [12]  756 	ld	de, #_wall1_left_half_c_bkg
      000343 D5               [16]  757 	push	de
      000344 21 06 09         [12]  758 	ld	hl, #0x906
      000347 E5               [16]  759 	push	hl
      000348 21 04 03         [12]  760 	ld	hl, #0x304
      00034B E5               [16]  761 	push	hl
      00034C CDr00r00         [24]  762 	call	_set_bkg_tiles
      00034F E8 06            [16]  763 	add	sp, #6
      000351                        764 00151$:
                                    765 ;src/dng_crawling.c:109: if(right_is_wall){
      000351 F8 01            [12]  766 	ldhl	sp,	#1
      000353 CB 46            [12]  767 	bit	0, (hl)
      000355 28 18            [12]  768 	jr	Z, 00153$
                                    769 ;src/dng_crawling.c:110: set_bkg_tiles(10,3,6,9,wall1_half_bkg);
      000357 11r00r00         [12]  770 	ld	de, #_wall1_half_bkg
      00035A D5               [16]  771 	push	de
      00035B 21 06 09         [12]  772 	ld	hl, #0x906
      00035E E5               [16]  773 	push	hl
      00035F 3E 03            [ 8]  774 	ld	a, #0x03
      000361 F5               [16]  775 	push	af
      000362 33               [ 8]  776 	inc	sp
      000363 3E 0A            [ 8]  777 	ld	a, #0x0a
      000365 F5               [16]  778 	push	af
      000366 33               [ 8]  779 	inc	sp
      000367 CDr00r00         [24]  780 	call	_set_bkg_tiles
      00036A E8 06            [16]  781 	add	sp, #6
      00036C C3r01r05         [16]  782 	jp	00199$
      00036F                        783 00153$:
                                    784 ;src/dng_crawling.c:112: set_bkg_tiles(10,3,6,9,wall1_right_half_c_bkg);
      00036F 11r00r00         [12]  785 	ld	de, #_wall1_right_half_c_bkg
      000372 D5               [16]  786 	push	de
      000373 21 06 09         [12]  787 	ld	hl, #0x906
      000376 E5               [16]  788 	push	hl
      000377 3E 03            [ 8]  789 	ld	a, #0x03
      000379 F5               [16]  790 	push	af
      00037A 33               [ 8]  791 	inc	sp
      00037B 3E 0A            [ 8]  792 	ld	a, #0x0a
      00037D F5               [16]  793 	push	af
      00037E 33               [ 8]  794 	inc	sp
      00037F CDr00r00         [24]  795 	call	_set_bkg_tiles
      000382 E8 06            [16]  796 	add	sp, #6
                                    797 ;src/dng_crawling.c:115: break;
      000384 C3r01r05         [16]  798 	jp	00199$
                                    799 ;src/dng_crawling.c:116: case 2:
      000387                        800 00158$:
                                    801 ;src/dng_crawling.c:117: if(is_door){
      000387 CB 43            [ 8]  802 	bit	0, e
      000389 28 5E            [12]  803 	jr	Z, 00172$
                                    804 ;src/dng_crawling.c:118: if(left_is_wall){
      00038B CB 41            [ 8]  805 	bit	0, c
      00038D 28 13            [12]  806 	jr	Z, 00160$
                                    807 ;src/dng_crawling.c:119: set_bkg_tiles(6,3,4,9,door2_left_half_bkg);
      00038F 11r00r00         [12]  808 	ld	de, #_door2_left_half_bkg
      000392 D5               [16]  809 	push	de
      000393 21 04 09         [12]  810 	ld	hl, #0x904
      000396 E5               [16]  811 	push	hl
      000397 21 06 03         [12]  812 	ld	hl, #0x306
      00039A E5               [16]  813 	push	hl
      00039B CDr00r00         [24]  814 	call	_set_bkg_tiles
      00039E E8 06            [16]  815 	add	sp, #6
      0003A0 18 11            [12]  816 	jr	00161$
      0003A2                        817 00160$:
                                    818 ;src/dng_crawling.c:121: set_bkg_tiles(6,3,4,9,door2_left_half_c_bkg);
      0003A2 11r00r00         [12]  819 	ld	de, #_door2_left_half_c_bkg
      0003A5 D5               [16]  820 	push	de
      0003A6 21 04 09         [12]  821 	ld	hl, #0x904
      0003A9 E5               [16]  822 	push	hl
      0003AA 21 06 03         [12]  823 	ld	hl, #0x306
      0003AD E5               [16]  824 	push	hl
      0003AE CDr00r00         [24]  825 	call	_set_bkg_tiles
      0003B1 E8 06            [16]  826 	add	sp, #6
      0003B3                        827 00161$:
                                    828 ;src/dng_crawling.c:123: if(right_is_wall){
      0003B3 F8 01            [12]  829 	ldhl	sp,	#1
      0003B5 CB 46            [12]  830 	bit	0, (hl)
      0003B7 28 18            [12]  831 	jr	Z, 00163$
                                    832 ;src/dng_crawling.c:124: set_bkg_tiles(10,3,4,9,door2_right_half_bkg);
      0003B9 11r00r00         [12]  833 	ld	de, #_door2_right_half_bkg
      0003BC D5               [16]  834 	push	de
      0003BD 21 04 09         [12]  835 	ld	hl, #0x904
      0003C0 E5               [16]  836 	push	hl
      0003C1 3E 03            [ 8]  837 	ld	a, #0x03
      0003C3 F5               [16]  838 	push	af
      0003C4 33               [ 8]  839 	inc	sp
      0003C5 3E 0A            [ 8]  840 	ld	a, #0x0a
      0003C7 F5               [16]  841 	push	af
      0003C8 33               [ 8]  842 	inc	sp
      0003C9 CDr00r00         [24]  843 	call	_set_bkg_tiles
      0003CC E8 06            [16]  844 	add	sp, #6
      0003CE C3r01r05         [16]  845 	jp	00199$
      0003D1                        846 00163$:
                                    847 ;src/dng_crawling.c:127: set_bkg_tiles(10,3,4,9,door2_right_half_c_bkg);
      0003D1 11r00r00         [12]  848 	ld	de, #_door2_right_half_c_bkg
      0003D4 D5               [16]  849 	push	de
      0003D5 21 04 09         [12]  850 	ld	hl, #0x904
      0003D8 E5               [16]  851 	push	hl
      0003D9 3E 03            [ 8]  852 	ld	a, #0x03
      0003DB F5               [16]  853 	push	af
      0003DC 33               [ 8]  854 	inc	sp
      0003DD 3E 0A            [ 8]  855 	ld	a, #0x0a
      0003DF F5               [16]  856 	push	af
      0003E0 33               [ 8]  857 	inc	sp
      0003E1 CDr00r00         [24]  858 	call	_set_bkg_tiles
      0003E4 E8 06            [16]  859 	add	sp, #6
      0003E6 C3r01r05         [16]  860 	jp	00199$
      0003E9                        861 00172$:
                                    862 ;src/dng_crawling.c:130: if(left_is_wall){
      0003E9 CB 41            [ 8]  863 	bit	0, c
      0003EB 28 13            [12]  864 	jr	Z, 00166$
                                    865 ;src/dng_crawling.c:131: set_bkg_tiles(6,3,4,9,wall2_half_bkg);
      0003ED 11r00r00         [12]  866 	ld	de, #_wall2_half_bkg
      0003F0 D5               [16]  867 	push	de
      0003F1 21 04 09         [12]  868 	ld	hl, #0x904
      0003F4 E5               [16]  869 	push	hl
      0003F5 21 06 03         [12]  870 	ld	hl, #0x306
      0003F8 E5               [16]  871 	push	hl
      0003F9 CDr00r00         [24]  872 	call	_set_bkg_tiles
      0003FC E8 06            [16]  873 	add	sp, #6
      0003FE 18 11            [12]  874 	jr	00167$
      000400                        875 00166$:
                                    876 ;src/dng_crawling.c:133: set_bkg_tiles(6,3,4,9,wall2_left_half_c_bkg);
      000400 11r00r00         [12]  877 	ld	de, #_wall2_left_half_c_bkg
      000403 D5               [16]  878 	push	de
      000404 21 04 09         [12]  879 	ld	hl, #0x904
      000407 E5               [16]  880 	push	hl
      000408 21 06 03         [12]  881 	ld	hl, #0x306
      00040B E5               [16]  882 	push	hl
      00040C CDr00r00         [24]  883 	call	_set_bkg_tiles
      00040F E8 06            [16]  884 	add	sp, #6
      000411                        885 00167$:
                                    886 ;src/dng_crawling.c:135: if(right_is_wall){
      000411 F8 01            [12]  887 	ldhl	sp,	#1
      000413 CB 46            [12]  888 	bit	0, (hl)
      000415 28 18            [12]  889 	jr	Z, 00169$
                                    890 ;src/dng_crawling.c:136: set_bkg_tiles(10,3,4,9,wall2_half_bkg);
      000417 11r00r00         [12]  891 	ld	de, #_wall2_half_bkg
      00041A D5               [16]  892 	push	de
      00041B 21 04 09         [12]  893 	ld	hl, #0x904
      00041E E5               [16]  894 	push	hl
      00041F 3E 03            [ 8]  895 	ld	a, #0x03
      000421 F5               [16]  896 	push	af
      000422 33               [ 8]  897 	inc	sp
      000423 3E 0A            [ 8]  898 	ld	a, #0x0a
      000425 F5               [16]  899 	push	af
      000426 33               [ 8]  900 	inc	sp
      000427 CDr00r00         [24]  901 	call	_set_bkg_tiles
      00042A E8 06            [16]  902 	add	sp, #6
      00042C C3r01r05         [16]  903 	jp	00199$
      00042F                        904 00169$:
                                    905 ;src/dng_crawling.c:138: set_bkg_tiles(10,3,4,9,wall2_right_half_c_bkg);
      00042F 11r00r00         [12]  906 	ld	de, #_wall2_right_half_c_bkg
      000432 D5               [16]  907 	push	de
      000433 21 04 09         [12]  908 	ld	hl, #0x904
      000436 E5               [16]  909 	push	hl
      000437 3E 03            [ 8]  910 	ld	a, #0x03
      000439 F5               [16]  911 	push	af
      00043A 33               [ 8]  912 	inc	sp
      00043B 3E 0A            [ 8]  913 	ld	a, #0x0a
      00043D F5               [16]  914 	push	af
      00043E 33               [ 8]  915 	inc	sp
      00043F CDr00r00         [24]  916 	call	_set_bkg_tiles
      000442 E8 06            [16]  917 	add	sp, #6
                                    918 ;src/dng_crawling.c:141: break;
      000444 C3r01r05         [16]  919 	jp	00199$
                                    920 ;src/dng_crawling.c:143: case 3:
      000447                        921 00174$:
                                    922 ;src/dng_crawling.c:144: if(is_door){
      000447 CB 43            [ 8]  923 	bit	0, e
      000449 28 5C            [12]  924 	jr	Z, 00188$
                                    925 ;src/dng_crawling.c:145: if(left_is_wall){
      00044B CB 41            [ 8]  926 	bit	0, c
      00044D 28 13            [12]  927 	jr	Z, 00176$
                                    928 ;src/dng_crawling.c:146: set_bkg_tiles(7,3,3,9,door3_left_half_bkg);
      00044F 11r00r00         [12]  929 	ld	de, #_door3_left_half_bkg
      000452 D5               [16]  930 	push	de
      000453 21 03 09         [12]  931 	ld	hl, #0x903
      000456 E5               [16]  932 	push	hl
      000457 21 07 03         [12]  933 	ld	hl, #0x307
      00045A E5               [16]  934 	push	hl
      00045B CDr00r00         [24]  935 	call	_set_bkg_tiles
      00045E E8 06            [16]  936 	add	sp, #6
      000460 18 11            [12]  937 	jr	00177$
      000462                        938 00176$:
                                    939 ;src/dng_crawling.c:148: set_bkg_tiles(7,3,3,9,door3_left_half_c_bkg);
      000462 11r00r00         [12]  940 	ld	de, #_door3_left_half_c_bkg
      000465 D5               [16]  941 	push	de
      000466 21 03 09         [12]  942 	ld	hl, #0x903
      000469 E5               [16]  943 	push	hl
      00046A 21 07 03         [12]  944 	ld	hl, #0x307
      00046D E5               [16]  945 	push	hl
      00046E CDr00r00         [24]  946 	call	_set_bkg_tiles
      000471 E8 06            [16]  947 	add	sp, #6
      000473                        948 00177$:
                                    949 ;src/dng_crawling.c:150: if(right_is_wall){
      000473 F8 01            [12]  950 	ldhl	sp,	#1
      000475 CB 46            [12]  951 	bit	0, (hl)
      000477 28 17            [12]  952 	jr	Z, 00179$
                                    953 ;src/dng_crawling.c:151: set_bkg_tiles(10,3,3,9,door3_right_half_bkg);
      000479 01r00r00         [12]  954 	ld	bc, #_door3_right_half_bkg
      00047C C5               [16]  955 	push	bc
      00047D 21 03 09         [12]  956 	ld	hl, #0x903
      000480 E5               [16]  957 	push	hl
      000481 3E 03            [ 8]  958 	ld	a, #0x03
      000483 F5               [16]  959 	push	af
      000484 33               [ 8]  960 	inc	sp
      000485 3E 0A            [ 8]  961 	ld	a, #0x0a
      000487 F5               [16]  962 	push	af
      000488 33               [ 8]  963 	inc	sp
      000489 CDr00r00         [24]  964 	call	_set_bkg_tiles
      00048C E8 06            [16]  965 	add	sp, #6
      00048E 18 71            [12]  966 	jr	00199$
      000490                        967 00179$:
                                    968 ;src/dng_crawling.c:153: set_bkg_tiles(10,3,3,9,door3_right_half_c_bkg);
      000490 01r00r00         [12]  969 	ld	bc, #_door3_right_half_c_bkg
      000493 C5               [16]  970 	push	bc
      000494 21 03 09         [12]  971 	ld	hl, #0x903
      000497 E5               [16]  972 	push	hl
      000498 3E 03            [ 8]  973 	ld	a, #0x03
      00049A F5               [16]  974 	push	af
      00049B 33               [ 8]  975 	inc	sp
      00049C 3E 0A            [ 8]  976 	ld	a, #0x0a
      00049E F5               [16]  977 	push	af
      00049F 33               [ 8]  978 	inc	sp
      0004A0 CDr00r00         [24]  979 	call	_set_bkg_tiles
      0004A3 E8 06            [16]  980 	add	sp, #6
      0004A5 18 5A            [12]  981 	jr	00199$
      0004A7                        982 00188$:
                                    983 ;src/dng_crawling.c:156: if(left_is_wall){
      0004A7 CB 41            [ 8]  984 	bit	0, c
      0004A9 28 13            [12]  985 	jr	Z, 00182$
                                    986 ;src/dng_crawling.c:157: set_bkg_tiles(7,3,3,9,wall3_half_bkg);
      0004AB 11r00r00         [12]  987 	ld	de, #_wall3_half_bkg
      0004AE D5               [16]  988 	push	de
      0004AF 21 03 09         [12]  989 	ld	hl, #0x903
      0004B2 E5               [16]  990 	push	hl
      0004B3 21 07 03         [12]  991 	ld	hl, #0x307
      0004B6 E5               [16]  992 	push	hl
      0004B7 CDr00r00         [24]  993 	call	_set_bkg_tiles
      0004BA E8 06            [16]  994 	add	sp, #6
      0004BC 18 11            [12]  995 	jr	00183$
      0004BE                        996 00182$:
                                    997 ;src/dng_crawling.c:159: set_bkg_tiles(7,3,3,9,wall3_left_half_c_bkg);
      0004BE 11r00r00         [12]  998 	ld	de, #_wall3_left_half_c_bkg
      0004C1 D5               [16]  999 	push	de
      0004C2 21 03 09         [12] 1000 	ld	hl, #0x903
      0004C5 E5               [16] 1001 	push	hl
      0004C6 21 07 03         [12] 1002 	ld	hl, #0x307
      0004C9 E5               [16] 1003 	push	hl
      0004CA CDr00r00         [24] 1004 	call	_set_bkg_tiles
      0004CD E8 06            [16] 1005 	add	sp, #6
      0004CF                       1006 00183$:
                                   1007 ;src/dng_crawling.c:161: if(right_is_wall){
      0004CF F8 01            [12] 1008 	ldhl	sp,	#1
      0004D1 CB 46            [12] 1009 	bit	0, (hl)
      0004D3 28 17            [12] 1010 	jr	Z, 00185$
                                   1011 ;src/dng_crawling.c:162: set_bkg_tiles(10,3,3,9,wall3_half_bkg);
      0004D5 01r00r00         [12] 1012 	ld	bc, #_wall3_half_bkg
      0004D8 C5               [16] 1013 	push	bc
      0004D9 21 03 09         [12] 1014 	ld	hl, #0x903
      0004DC E5               [16] 1015 	push	hl
      0004DD 3E 03            [ 8] 1016 	ld	a, #0x03
      0004DF F5               [16] 1017 	push	af
      0004E0 33               [ 8] 1018 	inc	sp
      0004E1 3E 0A            [ 8] 1019 	ld	a, #0x0a
      0004E3 F5               [16] 1020 	push	af
      0004E4 33               [ 8] 1021 	inc	sp
      0004E5 CDr00r00         [24] 1022 	call	_set_bkg_tiles
      0004E8 E8 06            [16] 1023 	add	sp, #6
      0004EA 18 15            [12] 1024 	jr	00199$
      0004EC                       1025 00185$:
                                   1026 ;src/dng_crawling.c:164: set_bkg_tiles(10,3,3,9,wall3_right_half_c_bkg);
      0004EC 01r00r00         [12] 1027 	ld	bc, #_wall3_right_half_c_bkg
      0004EF C5               [16] 1028 	push	bc
      0004F0 21 03 09         [12] 1029 	ld	hl, #0x903
      0004F3 E5               [16] 1030 	push	hl
      0004F4 3E 03            [ 8] 1031 	ld	a, #0x03
      0004F6 F5               [16] 1032 	push	af
      0004F7 33               [ 8] 1033 	inc	sp
      0004F8 3E 0A            [ 8] 1034 	ld	a, #0x0a
      0004FA F5               [16] 1035 	push	af
      0004FB 33               [ 8] 1036 	inc	sp
      0004FC CDr00r00         [24] 1037 	call	_set_bkg_tiles
      0004FF E8 06            [16] 1038 	add	sp, #6
                                   1039 ;src/dng_crawling.c:168: }
      000501                       1040 00199$:
                                   1041 ;src/dng_crawling.c:169: }
      000501 E8 0E            [16] 1042 	add	sp, #14
      000503 E1               [12] 1043 	pop	hl
      000504 E8 04            [16] 1044 	add	sp, #4
      000506 E9               [ 4] 1045 	jp	(hl)
                                   1046 ;src/dng_crawling.c:171: void check_l_walls(const unsigned char *dng, uint8_t dungeon_width, uint8_t dungeon_hieght, uint8_t player_x, uint8_t player_y ,uint8_t player_dir){
                                   1047 ;	---------------------------------
                                   1048 ; Function check_l_walls
                                   1049 ; ---------------------------------
      000507                       1050 _check_l_walls::
      000507 E8 F1            [16] 1051 	add	sp, #-15
      000509 F8 0C            [12] 1052 	ldhl	sp,	#12
      00050B 73               [ 8] 1053 	ld	(hl), e
      00050C 23               [ 8] 1054 	inc	hl
      00050D 72               [ 8] 1055 	ld	(hl), d
      00050E 2B               [ 8] 1056 	dec	hl
      00050F 2B               [ 8] 1057 	dec	hl
      000510 77               [ 8] 1058 	ld	(hl), a
                                   1059 ;src/dng_crawling.c:172: unsigned char w[]={0x00,0x00,0x00,0x00};
      000511 F8 00            [12] 1060 	ldhl	sp,	#0
      000513 AF               [ 4] 1061 	xor	a, a
      000514 22               [ 8] 1062 	ld	(hl+), a
      000515 AF               [ 4] 1063 	xor	a, a
      000516 22               [ 8] 1064 	ld	(hl+), a
      000517 AF               [ 4] 1065 	xor	a, a
      000518 22               [ 8] 1066 	ld	(hl+), a
                                   1067 ;src/dng_crawling.c:173: unsigned char d=0x00;
      000519 AF               [ 4] 1068 	xor	a, a
      00051A 22               [ 8] 1069 	ld	(hl+), a
                                   1070 ;src/dng_crawling.c:174: unsigned char nd=0x00;
      00051B AF               [ 4] 1071 	xor	a, a
      00051C 22               [ 8] 1072 	ld	(hl+), a
      00051D 77               [ 8] 1073 	ld	(hl), a
                                   1074 ;src/dng_crawling.c:179: w[i] = return_value(dng,dungeon_width,dungeon_hieght,player_x-1, player_y-i);    
      00051E F8 13            [12] 1075 	ldhl	sp,	#19
      000520 7E               [ 8] 1076 	ld	a, (hl)
      000521 F8 0A            [12] 1077 	ldhl	sp,	#10
      000523 77               [ 8] 1078 	ld	(hl), a
      000524 F8 12            [12] 1079 	ldhl	sp,	#18
      000526 7E               [ 8] 1080 	ld	a, (hl)
      000527 F8 0E            [12] 1081 	ldhl	sp,	#14
      000529 77               [ 8] 1082 	ld	(hl), a
                                   1083 ;src/dng_crawling.c:176: switch(player_dir){
      00052A F8 14            [12] 1084 	ldhl	sp,	#20
      00052C 7E               [ 8] 1085 	ld	a, (hl)
      00052D B7               [ 4] 1086 	or	a, a
      00052E 28 19            [12] 1087 	jr	Z, 00166$
      000530 F8 14            [12] 1088 	ldhl	sp,	#20
      000532 7E               [ 8] 1089 	ld	a, (hl)
      000533 3D               [ 4] 1090 	dec	a
      000534 28 6C            [12] 1091 	jr	Z, 00168$
      000536 F8 14            [12] 1092 	ldhl	sp,	#20
      000538 7E               [ 8] 1093 	ld	a, (hl)
      000539 D6 02            [ 8] 1094 	sub	a, #0x02
      00053B CArE0r05         [16] 1095 	jp	Z,00170$
      00053E F8 14            [12] 1096 	ldhl	sp,	#20
      000540 7E               [ 8] 1097 	ld	a, (hl)
      000541 D6 03            [ 8] 1098 	sub	a, #0x03
      000543 CAr1Er06         [16] 1099 	jp	Z,00172$
      000546 C3r5Ar06         [16] 1100 	jp	00181$
                                   1101 ;src/dng_crawling.c:178: for (i=0; i<4; i++){
      000549                       1102 00166$:
      000549 F8 09            [12] 1103 	ldhl	sp,	#9
      00054B 36 00            [12] 1104 	ld	(hl), #0x00
      00054D                       1105 00149$:
                                   1106 ;src/dng_crawling.c:179: w[i] = return_value(dng,dungeon_width,dungeon_hieght,player_x-1, player_y-i);    
      00054D F8 09            [12] 1107 	ldhl	sp,	#9
      00054F 7E               [ 8] 1108 	ld	a, (hl)
      000550 F8 05            [12] 1109 	ldhl	sp,	#5
      000552 22               [ 8] 1110 	ld	(hl+), a
      000553 07               [ 4] 1111 	rlca
      000554 9F               [ 4] 1112 	sbc	a, a
      000555 77               [ 8] 1113 	ld	(hl), a
      000556 E5               [16] 1114 	push	hl
      000557 21 02 00         [12] 1115 	ld	hl, #2
      00055A 39               [ 8] 1116 	add	hl, sp
      00055B 5D               [ 4] 1117 	ld	e, l
      00055C 54               [ 4] 1118 	ld	d, h
      00055D E1               [12] 1119 	pop	hl
      00055E F8 05            [12] 1120 	ldhl	sp,	#5
      000560 2A               [ 8] 1121 	ld	a,	(hl+)
      000561 66               [ 8] 1122 	ld	h, (hl)
      000562 6F               [ 4] 1123 	ld	l, a
      000563 19               [ 8] 1124 	add	hl, de
      000564 E5               [16] 1125 	push	hl
      000565 7D               [ 4] 1126 	ld	a, l
      000566 F8 09            [12] 1127 	ldhl	sp,	#9
      000568 77               [ 8] 1128 	ld	(hl), a
      000569 E1               [12] 1129 	pop	hl
      00056A 7C               [ 4] 1130 	ld	a, h
      00056B F8 08            [12] 1131 	ldhl	sp,	#8
      00056D 22               [ 8] 1132 	ld	(hl+), a
      00056E 23               [ 8] 1133 	inc	hl
      00056F 3A               [ 8] 1134 	ld	a, (hl-)
      000570 96               [ 8] 1135 	sub	a, (hl)
      000571 F8 0E            [12] 1136 	ldhl	sp,	#14
      000573 46               [ 8] 1137 	ld	b, (hl)
      000574 05               [ 4] 1138 	dec	b
      000575 F5               [16] 1139 	push	af
      000576 33               [ 8] 1140 	inc	sp
      000577 C5               [16] 1141 	push	bc
      000578 33               [ 8] 1142 	inc	sp
      000579 F8 13            [12] 1143 	ldhl	sp,	#19
      00057B 7E               [ 8] 1144 	ld	a, (hl)
      00057C F5               [16] 1145 	push	af
      00057D 33               [ 8] 1146 	inc	sp
      00057E F8 0E            [12] 1147 	ldhl	sp,	#14
      000580 2A               [ 8] 1148 	ld	a, (hl+)
      000581 5E               [ 8] 1149 	ld	e, (hl)
      000582 23               [ 8] 1150 	inc	hl
      000583 56               [ 8] 1151 	ld	d, (hl)
      000584 CDr00r00         [24] 1152 	call	_return_value
      000587 4F               [ 4] 1153 	ld	c, a
      000588 F8 07            [12] 1154 	ldhl	sp,	#7
      00058A 2A               [ 8] 1155 	ld	a,	(hl+)
      00058B 66               [ 8] 1156 	ld	h, (hl)
      00058C 6F               [ 4] 1157 	ld	l, a
      00058D 71               [ 8] 1158 	ld	(hl), c
                                   1159 ;src/dng_crawling.c:178: for (i=0; i<4; i++){
      00058E F8 09            [12] 1160 	ldhl	sp,	#9
      000590 34               [12] 1161 	inc	(hl)
      000591 7E               [ 8] 1162 	ld	a, (hl)
      000592 EE 80            [ 8] 1163 	xor	a, #0x80
      000594 D6 84            [ 8] 1164 	sub	a, #0x84
      000596 38 B5            [12] 1165 	jr	C, 00149$
                                   1166 ;src/dng_crawling.c:181: d=0x06;
      000598 F8 04            [12] 1167 	ldhl	sp,	#4
                                   1168 ;src/dng_crawling.c:182: nd=0x03;
      00059A 3E 06            [ 8] 1169 	ld	a, #0x06
      00059C 22               [ 8] 1170 	ld	(hl+), a
      00059D 36 03            [12] 1171 	ld	(hl), #0x03
                                   1172 ;src/dng_crawling.c:183: break;
      00059F C3r5Ar06         [16] 1173 	jp	00181$
                                   1174 ;src/dng_crawling.c:185: for (i=0; i<4; i++){
      0005A2                       1175 00168$:
      0005A2 0E 00            [ 8] 1176 	ld	c, #0x00
      0005A4                       1177 00151$:
                                   1178 ;src/dng_crawling.c:186: w[i] = return_value(dng,dungeon_width,dungeon_hieght,player_x+i, player_y-1);
      0005A4 79               [ 4] 1179 	ld	a, c
      0005A5 5F               [ 4] 1180 	ld	e, a
      0005A6 07               [ 4] 1181 	rlca
      0005A7 9F               [ 4] 1182 	sbc	a, a
      0005A8 57               [ 4] 1183 	ld	d, a
      0005A9 21 00 00         [12] 1184 	ld	hl, #0
      0005AC 39               [ 8] 1185 	add	hl, sp
      0005AD 19               [ 8] 1186 	add	hl, de
      0005AE 5D               [ 4] 1187 	ld	e, l
      0005AF 54               [ 4] 1188 	ld	d, h
      0005B0 F8 0A            [12] 1189 	ldhl	sp,	#10
      0005B2 46               [ 8] 1190 	ld	b, (hl)
      0005B3 05               [ 4] 1191 	dec	b
      0005B4 F8 0E            [12] 1192 	ldhl	sp,	#14
      0005B6 7E               [ 8] 1193 	ld	a, (hl)
      0005B7 81               [ 4] 1194 	add	a, c
      0005B8 C5               [16] 1195 	push	bc
      0005B9 D5               [16] 1196 	push	de
      0005BA C5               [16] 1197 	push	bc
      0005BB 33               [ 8] 1198 	inc	sp
      0005BC F5               [16] 1199 	push	af
      0005BD 33               [ 8] 1200 	inc	sp
      0005BE F8 17            [12] 1201 	ldhl	sp,	#23
      0005C0 7E               [ 8] 1202 	ld	a, (hl)
      0005C1 F5               [16] 1203 	push	af
      0005C2 33               [ 8] 1204 	inc	sp
      0005C3 F8 12            [12] 1205 	ldhl	sp,	#18
      0005C5 2A               [ 8] 1206 	ld	a, (hl+)
      0005C6 5E               [ 8] 1207 	ld	e, (hl)
      0005C7 23               [ 8] 1208 	inc	hl
      0005C8 56               [ 8] 1209 	ld	d, (hl)
      0005C9 CDr00r00         [24] 1210 	call	_return_value
      0005CC D1               [12] 1211 	pop	de
      0005CD C1               [12] 1212 	pop	bc
      0005CE 12               [ 8] 1213 	ld	(de), a
                                   1214 ;src/dng_crawling.c:185: for (i=0; i<4; i++){
      0005CF 0C               [ 4] 1215 	inc	c
      0005D0 79               [ 4] 1216 	ld	a, c
      0005D1 EE 80            [ 8] 1217 	xor	a, #0x80
      0005D3 D6 84            [ 8] 1218 	sub	a, #0x84
      0005D5 38 CD            [12] 1219 	jr	C, 00151$
                                   1220 ;src/dng_crawling.c:188: d=0x03;
      0005D7 F8 04            [12] 1221 	ldhl	sp,	#4
                                   1222 ;src/dng_crawling.c:189: nd=0x04;
      0005D9 3E 03            [ 8] 1223 	ld	a, #0x03
      0005DB 22               [ 8] 1224 	ld	(hl+), a
      0005DC 36 04            [12] 1225 	ld	(hl), #0x04
                                   1226 ;src/dng_crawling.c:190: break;
      0005DE 18 7A            [12] 1227 	jr	00181$
                                   1228 ;src/dng_crawling.c:192: for (i=0; i<4; i++){
      0005E0                       1229 00170$:
      0005E0 0E 00            [ 8] 1230 	ld	c, #0x00
      0005E2                       1231 00153$:
                                   1232 ;src/dng_crawling.c:193: w[i] = return_value(dng,dungeon_width,dungeon_hieght,player_x+1, player_y+i);
      0005E2 79               [ 4] 1233 	ld	a, c
      0005E3 5F               [ 4] 1234 	ld	e, a
      0005E4 07               [ 4] 1235 	rlca
      0005E5 9F               [ 4] 1236 	sbc	a, a
      0005E6 57               [ 4] 1237 	ld	d, a
      0005E7 21 00 00         [12] 1238 	ld	hl, #0
      0005EA 39               [ 8] 1239 	add	hl, sp
      0005EB 19               [ 8] 1240 	add	hl, de
      0005EC 5D               [ 4] 1241 	ld	e, l
      0005ED 54               [ 4] 1242 	ld	d, h
      0005EE F8 0A            [12] 1243 	ldhl	sp,	#10
      0005F0 7E               [ 8] 1244 	ld	a, (hl)
      0005F1 81               [ 4] 1245 	add	a, c
      0005F2 F8 0E            [12] 1246 	ldhl	sp,	#14
      0005F4 46               [ 8] 1247 	ld	b, (hl)
      0005F5 04               [ 4] 1248 	inc	b
      0005F6 C5               [16] 1249 	push	bc
      0005F7 D5               [16] 1250 	push	de
      0005F8 F5               [16] 1251 	push	af
      0005F9 33               [ 8] 1252 	inc	sp
      0005FA C5               [16] 1253 	push	bc
      0005FB 33               [ 8] 1254 	inc	sp
      0005FC F8 17            [12] 1255 	ldhl	sp,	#23
      0005FE 7E               [ 8] 1256 	ld	a, (hl)
      0005FF F5               [16] 1257 	push	af
      000600 33               [ 8] 1258 	inc	sp
      000601 F8 12            [12] 1259 	ldhl	sp,	#18
      000603 2A               [ 8] 1260 	ld	a, (hl+)
      000604 5E               [ 8] 1261 	ld	e, (hl)
      000605 23               [ 8] 1262 	inc	hl
      000606 56               [ 8] 1263 	ld	d, (hl)
      000607 CDr00r00         [24] 1264 	call	_return_value
      00060A D1               [12] 1265 	pop	de
      00060B C1               [12] 1266 	pop	bc
      00060C 12               [ 8] 1267 	ld	(de), a
                                   1268 ;src/dng_crawling.c:192: for (i=0; i<4; i++){
      00060D 0C               [ 4] 1269 	inc	c
      00060E 79               [ 4] 1270 	ld	a, c
      00060F EE 80            [ 8] 1271 	xor	a, #0x80
      000611 D6 84            [ 8] 1272 	sub	a, #0x84
      000613 38 CD            [12] 1273 	jr	C, 00153$
                                   1274 ;src/dng_crawling.c:195: d=0x04;
      000615 F8 04            [12] 1275 	ldhl	sp,	#4
                                   1276 ;src/dng_crawling.c:196: nd=0x05;
      000617 3E 04            [ 8] 1277 	ld	a, #0x04
      000619 22               [ 8] 1278 	ld	(hl+), a
      00061A 36 05            [12] 1279 	ld	(hl), #0x05
                                   1280 ;src/dng_crawling.c:197: break;
      00061C 18 3C            [12] 1281 	jr	00181$
                                   1282 ;src/dng_crawling.c:199: for (i=0; i<4; i++){
      00061E                       1283 00172$:
      00061E 0E 00            [ 8] 1284 	ld	c, #0x00
      000620                       1285 00155$:
                                   1286 ;src/dng_crawling.c:200: w[i] = return_value(dng,dungeon_width,dungeon_hieght,player_x-i, player_y+1);
      000620 79               [ 4] 1287 	ld	a, c
      000621 5F               [ 4] 1288 	ld	e, a
      000622 07               [ 4] 1289 	rlca
      000623 9F               [ 4] 1290 	sbc	a, a
      000624 57               [ 4] 1291 	ld	d, a
      000625 21 00 00         [12] 1292 	ld	hl, #0
      000628 39               [ 8] 1293 	add	hl, sp
      000629 19               [ 8] 1294 	add	hl, de
      00062A 5D               [ 4] 1295 	ld	e, l
      00062B 54               [ 4] 1296 	ld	d, h
      00062C F8 0A            [12] 1297 	ldhl	sp,	#10
      00062E 46               [ 8] 1298 	ld	b, (hl)
      00062F 04               [ 4] 1299 	inc	b
      000630 F8 0E            [12] 1300 	ldhl	sp,	#14
      000632 7E               [ 8] 1301 	ld	a, (hl)
      000633 91               [ 4] 1302 	sub	a, c
      000634 C5               [16] 1303 	push	bc
      000635 D5               [16] 1304 	push	de
      000636 C5               [16] 1305 	push	bc
      000637 33               [ 8] 1306 	inc	sp
      000638 F5               [16] 1307 	push	af
      000639 33               [ 8] 1308 	inc	sp
      00063A F8 17            [12] 1309 	ldhl	sp,	#23
      00063C 7E               [ 8] 1310 	ld	a, (hl)
      00063D F5               [16] 1311 	push	af
      00063E 33               [ 8] 1312 	inc	sp
      00063F F8 12            [12] 1313 	ldhl	sp,	#18
      000641 2A               [ 8] 1314 	ld	a, (hl+)
      000642 5E               [ 8] 1315 	ld	e, (hl)
      000643 23               [ 8] 1316 	inc	hl
      000644 56               [ 8] 1317 	ld	d, (hl)
      000645 CDr00r00         [24] 1318 	call	_return_value
      000648 D1               [12] 1319 	pop	de
      000649 C1               [12] 1320 	pop	bc
      00064A 12               [ 8] 1321 	ld	(de), a
                                   1322 ;src/dng_crawling.c:199: for (i=0; i<4; i++){
      00064B 0C               [ 4] 1323 	inc	c
      00064C 79               [ 4] 1324 	ld	a, c
      00064D EE 80            [ 8] 1325 	xor	a, #0x80
      00064F D6 84            [ 8] 1326 	sub	a, #0x84
      000651 38 CD            [12] 1327 	jr	C, 00155$
                                   1328 ;src/dng_crawling.c:202: d=0x05;
      000653 F8 04            [12] 1329 	ldhl	sp,	#4
                                   1330 ;src/dng_crawling.c:203: nd=0x06;
      000655 3E 05            [ 8] 1331 	ld	a, #0x05
      000657 22               [ 8] 1332 	ld	(hl+), a
      000658 36 06            [12] 1333 	ld	(hl), #0x06
                                   1334 ;src/dng_crawling.c:206: for(i=3, i>=0; i--;){
      00065A                       1335 00181$:
      00065A F8 0E            [12] 1336 	ldhl	sp,	#14
      00065C 36 03            [12] 1337 	ld	(hl), #0x03
      00065E                       1338 00158$:
      00065E F8 0E            [12] 1339 	ldhl	sp,	#14
      000660 7E               [ 8] 1340 	ld	a, (hl)
      000661 F8 0A            [12] 1341 	ldhl	sp,	#10
      000663 77               [ 8] 1342 	ld	(hl), a
      000664 F8 0E            [12] 1343 	ldhl	sp,	#14
      000666 35               [12] 1344 	dec	(hl)
      000667 F8 0A            [12] 1345 	ldhl	sp,	#10
      000669 7E               [ 8] 1346 	ld	a, (hl)
      00066A B7               [ 4] 1347 	or	a, a
      00066B CAr18r08         [16] 1348 	jp	Z, 00160$
                                   1349 ;src/dng_crawling.c:207: if(w[i]!=0x00 && w[i]!=0x01){
      00066E F8 0E            [12] 1350 	ldhl	sp,	#14
      000670 7E               [ 8] 1351 	ld	a, (hl)
      000671 4F               [ 4] 1352 	ld	c, a
      000672 07               [ 4] 1353 	rlca
      000673 9F               [ 4] 1354 	sbc	a, a
      000674 47               [ 4] 1355 	ld	b, a
      000675 21 00 00         [12] 1356 	ld	hl, #0
      000678 39               [ 8] 1357 	add	hl, sp
      000679 09               [ 8] 1358 	add	hl, bc
      00067A E5               [16] 1359 	push	hl
      00067B 7D               [ 4] 1360 	ld	a, l
      00067C F8 08            [12] 1361 	ldhl	sp,	#8
      00067E 77               [ 8] 1362 	ld	(hl), a
      00067F E1               [12] 1363 	pop	hl
      000680 7C               [ 4] 1364 	ld	a, h
      000681 F8 07            [12] 1365 	ldhl	sp,	#7
      000683 32               [ 8] 1366 	ld	(hl-), a
      000684 2A               [ 8] 1367 	ld	a, (hl+)
      000685 5F               [ 4] 1368 	ld	e, a
      000686 2A               [ 8] 1369 	ld	a, (hl+)
      000687 57               [ 4] 1370 	ld	d, a
      000688 1A               [ 8] 1371 	ld	a, (de)
      000689 77               [ 8] 1372 	ld	(hl), a
                                   1373 ;src/dng_crawling.c:209: if(i==2) if(w[i]==d) set_bkg_tiles(6,3,1,9,door3_l_bkg); else set_bkg_tiles(6,3,1,9,wall3_l_bkg);
      00068A F8 0E            [12] 1374 	ldhl	sp,	#14
      00068C 7E               [ 8] 1375 	ld	a, (hl)
      00068D D6 02            [ 8] 1376 	sub	a, #0x02
      00068F 3E 01            [ 8] 1377 	ld	a, #0x01
      000691 28 01            [12] 1378 	jr	Z, 00327$
      000693 AF               [ 4] 1379 	xor	a, a
      000694                       1380 00327$:
      000694 F8 09            [12] 1381 	ldhl	sp,	#9
      000696 77               [ 8] 1382 	ld	(hl), a
                                   1383 ;src/dng_crawling.c:210: if(i==1) if(w[i]==d) set_bkg_tiles(4,3,2,9,door2_l_bkg); else set_bkg_tiles(4,3,2,9,wall2_l_bkg);
      000697 F8 0E            [12] 1384 	ldhl	sp,	#14
      000699 7E               [ 8] 1385 	ld	a, (hl)
      00069A 3D               [ 4] 1386 	dec	a
      00069B 3E 01            [ 8] 1387 	ld	a, #0x01
      00069D 28 01            [12] 1388 	jr	Z, 00329$
      00069F AF               [ 4] 1389 	xor	a, a
      0006A0                       1390 00329$:
      0006A0 F8 0A            [12] 1391 	ldhl	sp,	#10
                                   1392 ;src/dng_crawling.c:207: if(w[i]!=0x00 && w[i]!=0x01){
      0006A2 32               [ 8] 1393 	ld	(hl-), a
      0006A3 2B               [ 8] 1394 	dec	hl
      0006A4 7E               [ 8] 1395 	ld	a, (hl)
      0006A5 B7               [ 4] 1396 	or	a, a
      0006A6 CAr53r07         [16] 1397 	jp	Z, 00145$
      0006A9 7E               [ 8] 1398 	ld	a, (hl)
      0006AA 3D               [ 4] 1399 	dec	a
      0006AB CAr53r07         [16] 1400 	jp	Z,00145$
                                   1401 ;src/dng_crawling.c:209: if(i==2) if(w[i]==d) set_bkg_tiles(6,3,1,9,door3_l_bkg); else set_bkg_tiles(6,3,1,9,wall3_l_bkg);
      0006AE F8 09            [12] 1402 	ldhl	sp,	#9
      0006B0 7E               [ 8] 1403 	ld	a, (hl)
      0006B1 B7               [ 4] 1404 	or	a, a
      0006B2 28 2C            [12] 1405 	jr	Z, 00114$
      0006B4 F8 04            [12] 1406 	ldhl	sp,	#4
      0006B6 7E               [ 8] 1407 	ld	a, (hl)
      0006B7 F8 08            [12] 1408 	ldhl	sp,	#8
      0006B9 96               [ 8] 1409 	sub	a, (hl)
      0006BA 20 13            [12] 1410 	jr	NZ, 00111$
      0006BC 11r00r00         [12] 1411 	ld	de, #_door3_l_bkg
      0006BF D5               [16] 1412 	push	de
      0006C0 21 01 09         [12] 1413 	ld	hl, #0x901
      0006C3 E5               [16] 1414 	push	hl
      0006C4 21 06 03         [12] 1415 	ld	hl, #0x306
      0006C7 E5               [16] 1416 	push	hl
      0006C8 CDr00r00         [24] 1417 	call	_set_bkg_tiles
      0006CB E8 06            [16] 1418 	add	sp, #6
      0006CD 18 11            [12] 1419 	jr	00114$
      0006CF                       1420 00111$:
      0006CF 11r00r00         [12] 1421 	ld	de, #_wall3_l_bkg
      0006D2 D5               [16] 1422 	push	de
      0006D3 21 01 09         [12] 1423 	ld	hl, #0x901
      0006D6 E5               [16] 1424 	push	hl
      0006D7 21 06 03         [12] 1425 	ld	hl, #0x306
      0006DA E5               [16] 1426 	push	hl
      0006DB CDr00r00         [24] 1427 	call	_set_bkg_tiles
      0006DE E8 06            [16] 1428 	add	sp, #6
      0006E0                       1429 00114$:
                                   1430 ;src/dng_crawling.c:210: if(i==1) if(w[i]==d) set_bkg_tiles(4,3,2,9,door2_l_bkg); else set_bkg_tiles(4,3,2,9,wall2_l_bkg);
      0006E0 F8 0A            [12] 1431 	ldhl	sp,	#10
      0006E2 7E               [ 8] 1432 	ld	a, (hl)
      0006E3 B7               [ 4] 1433 	or	a, a
      0006E4 28 31            [12] 1434 	jr	Z, 00119$
      0006E6 F8 06            [12] 1435 	ldhl	sp,#6
      0006E8 2A               [ 8] 1436 	ld	a, (hl+)
      0006E9 5F               [ 4] 1437 	ld	e, a
      0006EA 56               [ 8] 1438 	ld	d, (hl)
      0006EB 1A               [ 8] 1439 	ld	a, (de)
      0006EC 47               [ 4] 1440 	ld	b, a
      0006ED F8 04            [12] 1441 	ldhl	sp,	#4
      0006EF 7E               [ 8] 1442 	ld	a, (hl)
      0006F0 90               [ 4] 1443 	sub	a, b
      0006F1 20 13            [12] 1444 	jr	NZ, 00116$
      0006F3 11r00r00         [12] 1445 	ld	de, #_door2_l_bkg
      0006F6 D5               [16] 1446 	push	de
      0006F7 21 02 09         [12] 1447 	ld	hl, #0x902
      0006FA E5               [16] 1448 	push	hl
      0006FB 21 04 03         [12] 1449 	ld	hl, #0x304
      0006FE E5               [16] 1450 	push	hl
      0006FF CDr00r00         [24] 1451 	call	_set_bkg_tiles
      000702 E8 06            [16] 1452 	add	sp, #6
      000704 18 11            [12] 1453 	jr	00119$
      000706                       1454 00116$:
      000706 11r00r00         [12] 1455 	ld	de, #_wall2_l_bkg
      000709 D5               [16] 1456 	push	de
      00070A 21 02 09         [12] 1457 	ld	hl, #0x902
      00070D E5               [16] 1458 	push	hl
      00070E 21 04 03         [12] 1459 	ld	hl, #0x304
      000711 E5               [16] 1460 	push	hl
      000712 CDr00r00         [24] 1461 	call	_set_bkg_tiles
      000715 E8 06            [16] 1462 	add	sp, #6
      000717                       1463 00119$:
                                   1464 ;src/dng_crawling.c:211: if(i==0) if(w[i]==d) set_bkg_tiles(1,3,3,9,door1_l_bkg); else set_bkg_tiles(1,3,3,9,wall1_l_bkg);
      000717 F8 0E            [12] 1465 	ldhl	sp,	#14
      000719 7E               [ 8] 1466 	ld	a, (hl)
      00071A B7               [ 4] 1467 	or	a, a
      00071B C2r5Er06         [16] 1468 	jp	NZ, 00158$
      00071E F8 06            [12] 1469 	ldhl	sp,#6
      000720 2A               [ 8] 1470 	ld	a, (hl+)
      000721 5F               [ 4] 1471 	ld	e, a
      000722 56               [ 8] 1472 	ld	d, (hl)
      000723 1A               [ 8] 1473 	ld	a, (de)
      000724 47               [ 4] 1474 	ld	b, a
      000725 F8 04            [12] 1475 	ldhl	sp,	#4
      000727 7E               [ 8] 1476 	ld	a, (hl)
      000728 90               [ 4] 1477 	sub	a, b
      000729 20 14            [12] 1478 	jr	NZ, 00121$
      00072B 11r00r00         [12] 1479 	ld	de, #_door1_l_bkg
      00072E D5               [16] 1480 	push	de
      00072F 21 03 09         [12] 1481 	ld	hl, #0x903
      000732 E5               [16] 1482 	push	hl
      000733 21 01 03         [12] 1483 	ld	hl, #0x301
      000736 E5               [16] 1484 	push	hl
      000737 CDr00r00         [24] 1485 	call	_set_bkg_tiles
      00073A E8 06            [16] 1486 	add	sp, #6
      00073C C3r5Er06         [16] 1487 	jp	00158$
      00073F                       1488 00121$:
      00073F 11r00r00         [12] 1489 	ld	de, #_wall1_l_bkg
      000742 D5               [16] 1490 	push	de
      000743 21 03 09         [12] 1491 	ld	hl, #0x903
      000746 E5               [16] 1492 	push	hl
      000747 21 01 03         [12] 1493 	ld	hl, #0x301
      00074A E5               [16] 1494 	push	hl
      00074B CDr00r00         [24] 1495 	call	_set_bkg_tiles
      00074E E8 06            [16] 1496 	add	sp, #6
      000750 C3r5Er06         [16] 1497 	jp	00158$
      000753                       1498 00145$:
                                   1499 ;src/dng_crawling.c:213: if(w[i]==0x00 && w[i+1]!=0x00 && w[i+1]!=0x01){
      000753 F8 08            [12] 1500 	ldhl	sp,	#8
      000755 7E               [ 8] 1501 	ld	a, (hl)
      000756 B7               [ 4] 1502 	or	a, a
      000757 C2r5Er06         [16] 1503 	jp	NZ, 00158$
      00075A F8 0E            [12] 1504 	ldhl	sp,	#14
      00075C 7E               [ 8] 1505 	ld	a, (hl)
      00075D 3C               [ 4] 1506 	inc	a
      00075E 4F               [ 4] 1507 	ld	c, a
      00075F 07               [ 4] 1508 	rlca
      000760 9F               [ 4] 1509 	sbc	a, a
      000761 47               [ 4] 1510 	ld	b, a
      000762 21 00 00         [12] 1511 	ld	hl, #0
      000765 39               [ 8] 1512 	add	hl, sp
      000766 09               [ 8] 1513 	add	hl, bc
      000767 5D               [ 4] 1514 	ld	e, l
      000768 54               [ 4] 1515 	ld	d, h
      000769 1A               [ 8] 1516 	ld	a, (de)
      00076A F8 08            [12] 1517 	ldhl	sp,	#8
      00076C 77               [ 8] 1518 	ld	(hl),a
      00076D B7               [ 4] 1519 	or	a,a
      00076E CAr5Er06         [16] 1520 	jp	Z,00158$
      000771 3D               [ 4] 1521 	dec	a
      000772 CAr5Er06         [16] 1522 	jp	Z,00158$
                                   1523 ;src/dng_crawling.c:214: if(i==2) if(w[i+1]==nd) set_bkg_tiles(1,3,6,9,nowall_door3_l_bkg); else set_bkg_tiles(1,3,6,9,nowall3_l_bkg);
      000775 F8 09            [12] 1524 	ldhl	sp,	#9
      000777 7E               [ 8] 1525 	ld	a, (hl)
      000778 B7               [ 4] 1526 	or	a, a
      000779 28 30            [12] 1527 	jr	Z, 00129$
      00077B F8 05            [12] 1528 	ldhl	sp,	#5
      00077D 7E               [ 8] 1529 	ld	a, (hl)
      00077E F8 08            [12] 1530 	ldhl	sp,	#8
      000780 96               [ 8] 1531 	sub	a, (hl)
      000781 20 15            [12] 1532 	jr	NZ, 00126$
      000783 D5               [16] 1533 	push	de
      000784 01r00r00         [12] 1534 	ld	bc, #_nowall_door3_l_bkg
      000787 C5               [16] 1535 	push	bc
      000788 21 06 09         [12] 1536 	ld	hl, #0x906
      00078B E5               [16] 1537 	push	hl
      00078C 21 01 03         [12] 1538 	ld	hl, #0x301
      00078F E5               [16] 1539 	push	hl
      000790 CDr00r00         [24] 1540 	call	_set_bkg_tiles
      000793 E8 06            [16] 1541 	add	sp, #6
      000795 D1               [12] 1542 	pop	de
      000796 18 13            [12] 1543 	jr	00129$
      000798                       1544 00126$:
      000798 D5               [16] 1545 	push	de
      000799 01r00r00         [12] 1546 	ld	bc, #_nowall3_l_bkg
      00079C C5               [16] 1547 	push	bc
      00079D 21 06 09         [12] 1548 	ld	hl, #0x906
      0007A0 E5               [16] 1549 	push	hl
      0007A1 21 01 03         [12] 1550 	ld	hl, #0x301
      0007A4 E5               [16] 1551 	push	hl
      0007A5 CDr00r00         [24] 1552 	call	_set_bkg_tiles
      0007A8 E8 06            [16] 1553 	add	sp, #6
      0007AA D1               [12] 1554 	pop	de
      0007AB                       1555 00129$:
                                   1556 ;src/dng_crawling.c:215: if(i==1) if(w[i+1]==nd) set_bkg_tiles(1,3,5,9,nowall_door2_l_bkg); else set_bkg_tiles(1,3,5,9,nowall2_l_bkg);
      0007AB F8 0A            [12] 1557 	ldhl	sp,	#10
      0007AD 7E               [ 8] 1558 	ld	a, (hl)
      0007AE B7               [ 4] 1559 	or	a, a
      0007AF 28 30            [12] 1560 	jr	Z, 00134$
      0007B1 1A               [ 8] 1561 	ld	a, (de)
      0007B2 4F               [ 4] 1562 	ld	c, a
      0007B3 F8 05            [12] 1563 	ldhl	sp,	#5
      0007B5 7E               [ 8] 1564 	ld	a, (hl)
      0007B6 91               [ 4] 1565 	sub	a, c
      0007B7 20 15            [12] 1566 	jr	NZ, 00131$
      0007B9 D5               [16] 1567 	push	de
      0007BA 01r00r00         [12] 1568 	ld	bc, #_nowall_door2_l_bkg
      0007BD C5               [16] 1569 	push	bc
      0007BE 21 05 09         [12] 1570 	ld	hl, #0x905
      0007C1 E5               [16] 1571 	push	hl
      0007C2 21 01 03         [12] 1572 	ld	hl, #0x301
      0007C5 E5               [16] 1573 	push	hl
      0007C6 CDr00r00         [24] 1574 	call	_set_bkg_tiles
      0007C9 E8 06            [16] 1575 	add	sp, #6
      0007CB D1               [12] 1576 	pop	de
      0007CC 18 13            [12] 1577 	jr	00134$
      0007CE                       1578 00131$:
      0007CE D5               [16] 1579 	push	de
      0007CF 01r00r00         [12] 1580 	ld	bc, #_nowall2_l_bkg
      0007D2 C5               [16] 1581 	push	bc
      0007D3 21 05 09         [12] 1582 	ld	hl, #0x905
      0007D6 E5               [16] 1583 	push	hl
      0007D7 21 01 03         [12] 1584 	ld	hl, #0x301
      0007DA E5               [16] 1585 	push	hl
      0007DB CDr00r00         [24] 1586 	call	_set_bkg_tiles
      0007DE E8 06            [16] 1587 	add	sp, #6
      0007E0 D1               [12] 1588 	pop	de
      0007E1                       1589 00134$:
                                   1590 ;src/dng_crawling.c:216: if(i==0) if(w[i+1]==nd) set_bkg_tiles(1,3,3,9,nowall_door1_l_bkg); else set_bkg_tiles(1,3,3,9,nowall1_l_bkg);
      0007E1 F8 0E            [12] 1591 	ldhl	sp,	#14
      0007E3 7E               [ 8] 1592 	ld	a, (hl)
      0007E4 B7               [ 4] 1593 	or	a, a
      0007E5 C2r5Er06         [16] 1594 	jp	NZ, 00158$
      0007E8 1A               [ 8] 1595 	ld	a, (de)
      0007E9 47               [ 4] 1596 	ld	b, a
      0007EA F8 05            [12] 1597 	ldhl	sp,	#5
      0007EC 7E               [ 8] 1598 	ld	a, (hl)
      0007ED 90               [ 4] 1599 	sub	a, b
      0007EE 20 14            [12] 1600 	jr	NZ, 00136$
      0007F0 11r00r00         [12] 1601 	ld	de, #_nowall_door1_l_bkg
      0007F3 D5               [16] 1602 	push	de
      0007F4 21 03 09         [12] 1603 	ld	hl, #0x903
      0007F7 E5               [16] 1604 	push	hl
      0007F8 21 01 03         [12] 1605 	ld	hl, #0x301
      0007FB E5               [16] 1606 	push	hl
      0007FC CDr00r00         [24] 1607 	call	_set_bkg_tiles
      0007FF E8 06            [16] 1608 	add	sp, #6
      000801 C3r5Er06         [16] 1609 	jp	00158$
      000804                       1610 00136$:
      000804 11r00r00         [12] 1611 	ld	de, #_nowall1_l_bkg
      000807 D5               [16] 1612 	push	de
      000808 21 03 09         [12] 1613 	ld	hl, #0x903
      00080B E5               [16] 1614 	push	hl
      00080C 21 01 03         [12] 1615 	ld	hl, #0x301
      00080F E5               [16] 1616 	push	hl
      000810 CDr00r00         [24] 1617 	call	_set_bkg_tiles
      000813 E8 06            [16] 1618 	add	sp, #6
      000815 C3r5Er06         [16] 1619 	jp	00158$
      000818                       1620 00160$:
                                   1621 ;src/dng_crawling.c:221: }
      000818 E8 0F            [16] 1622 	add	sp, #15
      00081A E1               [12] 1623 	pop	hl
      00081B E8 04            [16] 1624 	add	sp, #4
      00081D E9               [ 4] 1625 	jp	(hl)
                                   1626 ;src/dng_crawling.c:223: void check_r_walls(const unsigned char *dng, uint8_t dungeon_width, uint8_t dungeon_hieght, uint8_t player_x, uint8_t player_y ,uint8_t player_dir){
                                   1627 ;	---------------------------------
                                   1628 ; Function check_r_walls
                                   1629 ; ---------------------------------
      00081E                       1630 _check_r_walls::
      00081E E8 F1            [16] 1631 	add	sp, #-15
      000820 F8 0C            [12] 1632 	ldhl	sp,	#12
      000822 73               [ 8] 1633 	ld	(hl), e
      000823 23               [ 8] 1634 	inc	hl
      000824 72               [ 8] 1635 	ld	(hl), d
      000825 2B               [ 8] 1636 	dec	hl
      000826 2B               [ 8] 1637 	dec	hl
      000827 77               [ 8] 1638 	ld	(hl), a
                                   1639 ;src/dng_crawling.c:224: unsigned char w[]={0x00,0x00,0x00,0x00};
      000828 F8 00            [12] 1640 	ldhl	sp,	#0
      00082A AF               [ 4] 1641 	xor	a, a
      00082B 22               [ 8] 1642 	ld	(hl+), a
      00082C AF               [ 4] 1643 	xor	a, a
      00082D 22               [ 8] 1644 	ld	(hl+), a
      00082E AF               [ 4] 1645 	xor	a, a
      00082F 22               [ 8] 1646 	ld	(hl+), a
                                   1647 ;src/dng_crawling.c:225: unsigned char d=0x00;
      000830 AF               [ 4] 1648 	xor	a, a
      000831 22               [ 8] 1649 	ld	(hl+), a
                                   1650 ;src/dng_crawling.c:226: unsigned char nd=0x00;
      000832 AF               [ 4] 1651 	xor	a, a
      000833 22               [ 8] 1652 	ld	(hl+), a
      000834 77               [ 8] 1653 	ld	(hl), a
                                   1654 ;src/dng_crawling.c:231: w[i] = return_value(dng,dungeon_width,dungeon_hieght,player_x+1, player_y-i);    
      000835 F8 13            [12] 1655 	ldhl	sp,	#19
      000837 7E               [ 8] 1656 	ld	a, (hl)
      000838 F8 0A            [12] 1657 	ldhl	sp,	#10
      00083A 77               [ 8] 1658 	ld	(hl), a
      00083B F8 12            [12] 1659 	ldhl	sp,	#18
      00083D 7E               [ 8] 1660 	ld	a, (hl)
      00083E F8 0E            [12] 1661 	ldhl	sp,	#14
      000840 77               [ 8] 1662 	ld	(hl), a
                                   1663 ;src/dng_crawling.c:228: switch(player_dir){
      000841 F8 14            [12] 1664 	ldhl	sp,	#20
      000843 7E               [ 8] 1665 	ld	a, (hl)
      000844 B7               [ 4] 1666 	or	a, a
      000845 28 19            [12] 1667 	jr	Z, 00166$
      000847 F8 14            [12] 1668 	ldhl	sp,	#20
      000849 7E               [ 8] 1669 	ld	a, (hl)
      00084A 3D               [ 4] 1670 	dec	a
      00084B 28 6C            [12] 1671 	jr	Z, 00168$
      00084D F8 14            [12] 1672 	ldhl	sp,	#20
      00084F 7E               [ 8] 1673 	ld	a, (hl)
      000850 D6 02            [ 8] 1674 	sub	a, #0x02
      000852 CArF7r08         [16] 1675 	jp	Z,00170$
      000855 F8 14            [12] 1676 	ldhl	sp,	#20
      000857 7E               [ 8] 1677 	ld	a, (hl)
      000858 D6 03            [ 8] 1678 	sub	a, #0x03
      00085A CAr35r09         [16] 1679 	jp	Z,00172$
      00085D C3r71r09         [16] 1680 	jp	00181$
                                   1681 ;src/dng_crawling.c:230: for (i=0; i<4; i++){
      000860                       1682 00166$:
      000860 F8 09            [12] 1683 	ldhl	sp,	#9
      000862 36 00            [12] 1684 	ld	(hl), #0x00
      000864                       1685 00149$:
                                   1686 ;src/dng_crawling.c:231: w[i] = return_value(dng,dungeon_width,dungeon_hieght,player_x+1, player_y-i);    
      000864 F8 09            [12] 1687 	ldhl	sp,	#9
      000866 7E               [ 8] 1688 	ld	a, (hl)
      000867 F8 05            [12] 1689 	ldhl	sp,	#5
      000869 22               [ 8] 1690 	ld	(hl+), a
      00086A 07               [ 4] 1691 	rlca
      00086B 9F               [ 4] 1692 	sbc	a, a
      00086C 77               [ 8] 1693 	ld	(hl), a
      00086D E5               [16] 1694 	push	hl
      00086E 21 02 00         [12] 1695 	ld	hl, #2
      000871 39               [ 8] 1696 	add	hl, sp
      000872 5D               [ 4] 1697 	ld	e, l
      000873 54               [ 4] 1698 	ld	d, h
      000874 E1               [12] 1699 	pop	hl
      000875 F8 05            [12] 1700 	ldhl	sp,	#5
      000877 2A               [ 8] 1701 	ld	a,	(hl+)
      000878 66               [ 8] 1702 	ld	h, (hl)
      000879 6F               [ 4] 1703 	ld	l, a
      00087A 19               [ 8] 1704 	add	hl, de
      00087B E5               [16] 1705 	push	hl
      00087C 7D               [ 4] 1706 	ld	a, l
      00087D F8 09            [12] 1707 	ldhl	sp,	#9
      00087F 77               [ 8] 1708 	ld	(hl), a
      000880 E1               [12] 1709 	pop	hl
      000881 7C               [ 4] 1710 	ld	a, h
      000882 F8 08            [12] 1711 	ldhl	sp,	#8
      000884 22               [ 8] 1712 	ld	(hl+), a
      000885 23               [ 8] 1713 	inc	hl
      000886 3A               [ 8] 1714 	ld	a, (hl-)
      000887 96               [ 8] 1715 	sub	a, (hl)
      000888 F8 0E            [12] 1716 	ldhl	sp,	#14
      00088A 46               [ 8] 1717 	ld	b, (hl)
      00088B 04               [ 4] 1718 	inc	b
      00088C F5               [16] 1719 	push	af
      00088D 33               [ 8] 1720 	inc	sp
      00088E C5               [16] 1721 	push	bc
      00088F 33               [ 8] 1722 	inc	sp
      000890 F8 13            [12] 1723 	ldhl	sp,	#19
      000892 7E               [ 8] 1724 	ld	a, (hl)
      000893 F5               [16] 1725 	push	af
      000894 33               [ 8] 1726 	inc	sp
      000895 F8 0E            [12] 1727 	ldhl	sp,	#14
      000897 2A               [ 8] 1728 	ld	a, (hl+)
      000898 5E               [ 8] 1729 	ld	e, (hl)
      000899 23               [ 8] 1730 	inc	hl
      00089A 56               [ 8] 1731 	ld	d, (hl)
      00089B CDr00r00         [24] 1732 	call	_return_value
      00089E 4F               [ 4] 1733 	ld	c, a
      00089F F8 07            [12] 1734 	ldhl	sp,	#7
      0008A1 2A               [ 8] 1735 	ld	a,	(hl+)
      0008A2 66               [ 8] 1736 	ld	h, (hl)
      0008A3 6F               [ 4] 1737 	ld	l, a
      0008A4 71               [ 8] 1738 	ld	(hl), c
                                   1739 ;src/dng_crawling.c:230: for (i=0; i<4; i++){
      0008A5 F8 09            [12] 1740 	ldhl	sp,	#9
      0008A7 34               [12] 1741 	inc	(hl)
      0008A8 7E               [ 8] 1742 	ld	a, (hl)
      0008A9 EE 80            [ 8] 1743 	xor	a, #0x80
      0008AB D6 84            [ 8] 1744 	sub	a, #0x84
      0008AD 38 B5            [12] 1745 	jr	C, 00149$
                                   1746 ;src/dng_crawling.c:233: d=0x04;
      0008AF F8 04            [12] 1747 	ldhl	sp,	#4
                                   1748 ;src/dng_crawling.c:234: nd=0x03;
      0008B1 3E 04            [ 8] 1749 	ld	a, #0x04
      0008B3 22               [ 8] 1750 	ld	(hl+), a
      0008B4 36 03            [12] 1751 	ld	(hl), #0x03
                                   1752 ;src/dng_crawling.c:235: break;
      0008B6 C3r71r09         [16] 1753 	jp	00181$
                                   1754 ;src/dng_crawling.c:237: for (i=0; i<4; i++){
      0008B9                       1755 00168$:
      0008B9 0E 00            [ 8] 1756 	ld	c, #0x00
      0008BB                       1757 00151$:
                                   1758 ;src/dng_crawling.c:238: w[i] = return_value(dng,dungeon_width,dungeon_hieght,player_x+i, player_y+1);
      0008BB 79               [ 4] 1759 	ld	a, c
      0008BC 5F               [ 4] 1760 	ld	e, a
      0008BD 07               [ 4] 1761 	rlca
      0008BE 9F               [ 4] 1762 	sbc	a, a
      0008BF 57               [ 4] 1763 	ld	d, a
      0008C0 21 00 00         [12] 1764 	ld	hl, #0
      0008C3 39               [ 8] 1765 	add	hl, sp
      0008C4 19               [ 8] 1766 	add	hl, de
      0008C5 5D               [ 4] 1767 	ld	e, l
      0008C6 54               [ 4] 1768 	ld	d, h
      0008C7 F8 0A            [12] 1769 	ldhl	sp,	#10
      0008C9 46               [ 8] 1770 	ld	b, (hl)
      0008CA 04               [ 4] 1771 	inc	b
      0008CB F8 0E            [12] 1772 	ldhl	sp,	#14
      0008CD 7E               [ 8] 1773 	ld	a, (hl)
      0008CE 81               [ 4] 1774 	add	a, c
      0008CF C5               [16] 1775 	push	bc
      0008D0 D5               [16] 1776 	push	de
      0008D1 C5               [16] 1777 	push	bc
      0008D2 33               [ 8] 1778 	inc	sp
      0008D3 F5               [16] 1779 	push	af
      0008D4 33               [ 8] 1780 	inc	sp
      0008D5 F8 17            [12] 1781 	ldhl	sp,	#23
      0008D7 7E               [ 8] 1782 	ld	a, (hl)
      0008D8 F5               [16] 1783 	push	af
      0008D9 33               [ 8] 1784 	inc	sp
      0008DA F8 12            [12] 1785 	ldhl	sp,	#18
      0008DC 2A               [ 8] 1786 	ld	a, (hl+)
      0008DD 5E               [ 8] 1787 	ld	e, (hl)
      0008DE 23               [ 8] 1788 	inc	hl
      0008DF 56               [ 8] 1789 	ld	d, (hl)
      0008E0 CDr00r00         [24] 1790 	call	_return_value
      0008E3 D1               [12] 1791 	pop	de
      0008E4 C1               [12] 1792 	pop	bc
      0008E5 12               [ 8] 1793 	ld	(de), a
                                   1794 ;src/dng_crawling.c:237: for (i=0; i<4; i++){
      0008E6 0C               [ 4] 1795 	inc	c
      0008E7 79               [ 4] 1796 	ld	a, c
      0008E8 EE 80            [ 8] 1797 	xor	a, #0x80
      0008EA D6 84            [ 8] 1798 	sub	a, #0x84
      0008EC 38 CD            [12] 1799 	jr	C, 00151$
                                   1800 ;src/dng_crawling.c:240: d=0x05;
      0008EE F8 04            [12] 1801 	ldhl	sp,	#4
                                   1802 ;src/dng_crawling.c:241: nd=0x04;
      0008F0 3E 05            [ 8] 1803 	ld	a, #0x05
      0008F2 22               [ 8] 1804 	ld	(hl+), a
      0008F3 36 04            [12] 1805 	ld	(hl), #0x04
                                   1806 ;src/dng_crawling.c:242: break;
      0008F5 18 7A            [12] 1807 	jr	00181$
                                   1808 ;src/dng_crawling.c:244: for (i=0; i<4; i++){
      0008F7                       1809 00170$:
      0008F7 0E 00            [ 8] 1810 	ld	c, #0x00
      0008F9                       1811 00153$:
                                   1812 ;src/dng_crawling.c:245: w[i] = return_value(dng,dungeon_width,dungeon_hieght,player_x-1, player_y+i);
      0008F9 79               [ 4] 1813 	ld	a, c
      0008FA 5F               [ 4] 1814 	ld	e, a
      0008FB 07               [ 4] 1815 	rlca
      0008FC 9F               [ 4] 1816 	sbc	a, a
      0008FD 57               [ 4] 1817 	ld	d, a
      0008FE 21 00 00         [12] 1818 	ld	hl, #0
      000901 39               [ 8] 1819 	add	hl, sp
      000902 19               [ 8] 1820 	add	hl, de
      000903 5D               [ 4] 1821 	ld	e, l
      000904 54               [ 4] 1822 	ld	d, h
      000905 F8 0A            [12] 1823 	ldhl	sp,	#10
      000907 7E               [ 8] 1824 	ld	a, (hl)
      000908 81               [ 4] 1825 	add	a, c
      000909 F8 0E            [12] 1826 	ldhl	sp,	#14
      00090B 46               [ 8] 1827 	ld	b, (hl)
      00090C 05               [ 4] 1828 	dec	b
      00090D C5               [16] 1829 	push	bc
      00090E D5               [16] 1830 	push	de
      00090F F5               [16] 1831 	push	af
      000910 33               [ 8] 1832 	inc	sp
      000911 C5               [16] 1833 	push	bc
      000912 33               [ 8] 1834 	inc	sp
      000913 F8 17            [12] 1835 	ldhl	sp,	#23
      000915 7E               [ 8] 1836 	ld	a, (hl)
      000916 F5               [16] 1837 	push	af
      000917 33               [ 8] 1838 	inc	sp
      000918 F8 12            [12] 1839 	ldhl	sp,	#18
      00091A 2A               [ 8] 1840 	ld	a, (hl+)
      00091B 5E               [ 8] 1841 	ld	e, (hl)
      00091C 23               [ 8] 1842 	inc	hl
      00091D 56               [ 8] 1843 	ld	d, (hl)
      00091E CDr00r00         [24] 1844 	call	_return_value
      000921 D1               [12] 1845 	pop	de
      000922 C1               [12] 1846 	pop	bc
      000923 12               [ 8] 1847 	ld	(de), a
                                   1848 ;src/dng_crawling.c:244: for (i=0; i<4; i++){
      000924 0C               [ 4] 1849 	inc	c
      000925 79               [ 4] 1850 	ld	a, c
      000926 EE 80            [ 8] 1851 	xor	a, #0x80
      000928 D6 84            [ 8] 1852 	sub	a, #0x84
      00092A 38 CD            [12] 1853 	jr	C, 00153$
                                   1854 ;src/dng_crawling.c:247: d=0x06;
      00092C F8 04            [12] 1855 	ldhl	sp,	#4
                                   1856 ;src/dng_crawling.c:248: nd=0x05;
      00092E 3E 06            [ 8] 1857 	ld	a, #0x06
      000930 22               [ 8] 1858 	ld	(hl+), a
      000931 36 05            [12] 1859 	ld	(hl), #0x05
                                   1860 ;src/dng_crawling.c:249: break;
      000933 18 3C            [12] 1861 	jr	00181$
                                   1862 ;src/dng_crawling.c:251: for (i=0; i<4; i++){
      000935                       1863 00172$:
      000935 0E 00            [ 8] 1864 	ld	c, #0x00
      000937                       1865 00155$:
                                   1866 ;src/dng_crawling.c:252: w[i] = return_value(dng,dungeon_width,dungeon_hieght,player_x-i, player_y-1);
      000937 79               [ 4] 1867 	ld	a, c
      000938 5F               [ 4] 1868 	ld	e, a
      000939 07               [ 4] 1869 	rlca
      00093A 9F               [ 4] 1870 	sbc	a, a
      00093B 57               [ 4] 1871 	ld	d, a
      00093C 21 00 00         [12] 1872 	ld	hl, #0
      00093F 39               [ 8] 1873 	add	hl, sp
      000940 19               [ 8] 1874 	add	hl, de
      000941 5D               [ 4] 1875 	ld	e, l
      000942 54               [ 4] 1876 	ld	d, h
      000943 F8 0A            [12] 1877 	ldhl	sp,	#10
      000945 46               [ 8] 1878 	ld	b, (hl)
      000946 05               [ 4] 1879 	dec	b
      000947 F8 0E            [12] 1880 	ldhl	sp,	#14
      000949 7E               [ 8] 1881 	ld	a, (hl)
      00094A 91               [ 4] 1882 	sub	a, c
      00094B C5               [16] 1883 	push	bc
      00094C D5               [16] 1884 	push	de
      00094D C5               [16] 1885 	push	bc
      00094E 33               [ 8] 1886 	inc	sp
      00094F F5               [16] 1887 	push	af
      000950 33               [ 8] 1888 	inc	sp
      000951 F8 17            [12] 1889 	ldhl	sp,	#23
      000953 7E               [ 8] 1890 	ld	a, (hl)
      000954 F5               [16] 1891 	push	af
      000955 33               [ 8] 1892 	inc	sp
      000956 F8 12            [12] 1893 	ldhl	sp,	#18
      000958 2A               [ 8] 1894 	ld	a, (hl+)
      000959 5E               [ 8] 1895 	ld	e, (hl)
      00095A 23               [ 8] 1896 	inc	hl
      00095B 56               [ 8] 1897 	ld	d, (hl)
      00095C CDr00r00         [24] 1898 	call	_return_value
      00095F D1               [12] 1899 	pop	de
      000960 C1               [12] 1900 	pop	bc
      000961 12               [ 8] 1901 	ld	(de), a
                                   1902 ;src/dng_crawling.c:251: for (i=0; i<4; i++){
      000962 0C               [ 4] 1903 	inc	c
      000963 79               [ 4] 1904 	ld	a, c
      000964 EE 80            [ 8] 1905 	xor	a, #0x80
      000966 D6 84            [ 8] 1906 	sub	a, #0x84
      000968 38 CD            [12] 1907 	jr	C, 00155$
                                   1908 ;src/dng_crawling.c:254: d=0x03;
      00096A F8 04            [12] 1909 	ldhl	sp,	#4
                                   1910 ;src/dng_crawling.c:255: nd=0x06;
      00096C 3E 03            [ 8] 1911 	ld	a, #0x03
      00096E 22               [ 8] 1912 	ld	(hl+), a
      00096F 36 06            [12] 1913 	ld	(hl), #0x06
                                   1914 ;src/dng_crawling.c:258: for(i=3, i>=0; i--;){
      000971                       1915 00181$:
      000971 F8 0E            [12] 1916 	ldhl	sp,	#14
      000973 36 03            [12] 1917 	ld	(hl), #0x03
      000975                       1918 00158$:
      000975 F8 0E            [12] 1919 	ldhl	sp,	#14
      000977 7E               [ 8] 1920 	ld	a, (hl)
      000978 F8 0A            [12] 1921 	ldhl	sp,	#10
      00097A 77               [ 8] 1922 	ld	(hl), a
      00097B F8 0E            [12] 1923 	ldhl	sp,	#14
      00097D 35               [12] 1924 	dec	(hl)
      00097E F8 0A            [12] 1925 	ldhl	sp,	#10
      000980 7E               [ 8] 1926 	ld	a, (hl)
      000981 B7               [ 4] 1927 	or	a, a
      000982 CAr2Fr0B         [16] 1928 	jp	Z, 00160$
                                   1929 ;src/dng_crawling.c:259: if(w[i]!=0x00 && w[i]!=0x01){
      000985 F8 0E            [12] 1930 	ldhl	sp,	#14
      000987 7E               [ 8] 1931 	ld	a, (hl)
      000988 4F               [ 4] 1932 	ld	c, a
      000989 07               [ 4] 1933 	rlca
      00098A 9F               [ 4] 1934 	sbc	a, a
      00098B 47               [ 4] 1935 	ld	b, a
      00098C 21 00 00         [12] 1936 	ld	hl, #0
      00098F 39               [ 8] 1937 	add	hl, sp
      000990 09               [ 8] 1938 	add	hl, bc
      000991 E5               [16] 1939 	push	hl
      000992 7D               [ 4] 1940 	ld	a, l
      000993 F8 08            [12] 1941 	ldhl	sp,	#8
      000995 77               [ 8] 1942 	ld	(hl), a
      000996 E1               [12] 1943 	pop	hl
      000997 7C               [ 4] 1944 	ld	a, h
      000998 F8 07            [12] 1945 	ldhl	sp,	#7
      00099A 32               [ 8] 1946 	ld	(hl-), a
      00099B 2A               [ 8] 1947 	ld	a, (hl+)
      00099C 5F               [ 4] 1948 	ld	e, a
      00099D 2A               [ 8] 1949 	ld	a, (hl+)
      00099E 57               [ 4] 1950 	ld	d, a
      00099F 1A               [ 8] 1951 	ld	a, (de)
      0009A0 77               [ 8] 1952 	ld	(hl), a
                                   1953 ;src/dng_crawling.c:261: if(i==2) if(w[i]==d) set_bkg_tiles(13,3,1,9,door3_r_bkg); else set_bkg_tiles(13,3,1,9,wall3_r_bkg);
      0009A1 F8 0E            [12] 1954 	ldhl	sp,	#14
      0009A3 7E               [ 8] 1955 	ld	a, (hl)
      0009A4 D6 02            [ 8] 1956 	sub	a, #0x02
      0009A6 3E 01            [ 8] 1957 	ld	a, #0x01
      0009A8 28 01            [12] 1958 	jr	Z, 00327$
      0009AA AF               [ 4] 1959 	xor	a, a
      0009AB                       1960 00327$:
      0009AB F8 09            [12] 1961 	ldhl	sp,	#9
      0009AD 77               [ 8] 1962 	ld	(hl), a
                                   1963 ;src/dng_crawling.c:262: if(i==1) if(w[i]==d) set_bkg_tiles(14,3,2,9,door2_r_bkg); else set_bkg_tiles(14,3,2,9,wall2_r_bkg);
      0009AE F8 0E            [12] 1964 	ldhl	sp,	#14
      0009B0 7E               [ 8] 1965 	ld	a, (hl)
      0009B1 3D               [ 4] 1966 	dec	a
      0009B2 3E 01            [ 8] 1967 	ld	a, #0x01
      0009B4 28 01            [12] 1968 	jr	Z, 00329$
      0009B6 AF               [ 4] 1969 	xor	a, a
      0009B7                       1970 00329$:
      0009B7 F8 0A            [12] 1971 	ldhl	sp,	#10
                                   1972 ;src/dng_crawling.c:259: if(w[i]!=0x00 && w[i]!=0x01){
      0009B9 32               [ 8] 1973 	ld	(hl-), a
      0009BA 2B               [ 8] 1974 	dec	hl
      0009BB 7E               [ 8] 1975 	ld	a, (hl)
      0009BC B7               [ 4] 1976 	or	a, a
      0009BD CAr6Ar0A         [16] 1977 	jp	Z, 00145$
      0009C0 7E               [ 8] 1978 	ld	a, (hl)
      0009C1 3D               [ 4] 1979 	dec	a
      0009C2 CAr6Ar0A         [16] 1980 	jp	Z,00145$
                                   1981 ;src/dng_crawling.c:261: if(i==2) if(w[i]==d) set_bkg_tiles(13,3,1,9,door3_r_bkg); else set_bkg_tiles(13,3,1,9,wall3_r_bkg);
      0009C5 F8 09            [12] 1982 	ldhl	sp,	#9
      0009C7 7E               [ 8] 1983 	ld	a, (hl)
      0009C8 B7               [ 4] 1984 	or	a, a
      0009C9 28 2C            [12] 1985 	jr	Z, 00114$
      0009CB F8 04            [12] 1986 	ldhl	sp,	#4
      0009CD 7E               [ 8] 1987 	ld	a, (hl)
      0009CE F8 08            [12] 1988 	ldhl	sp,	#8
      0009D0 96               [ 8] 1989 	sub	a, (hl)
      0009D1 20 13            [12] 1990 	jr	NZ, 00111$
      0009D3 11r00r00         [12] 1991 	ld	de, #_door3_r_bkg
      0009D6 D5               [16] 1992 	push	de
      0009D7 21 01 09         [12] 1993 	ld	hl, #0x901
      0009DA E5               [16] 1994 	push	hl
      0009DB 21 0D 03         [12] 1995 	ld	hl, #0x30d
      0009DE E5               [16] 1996 	push	hl
      0009DF CDr00r00         [24] 1997 	call	_set_bkg_tiles
      0009E2 E8 06            [16] 1998 	add	sp, #6
      0009E4 18 11            [12] 1999 	jr	00114$
      0009E6                       2000 00111$:
      0009E6 11r00r00         [12] 2001 	ld	de, #_wall3_r_bkg
      0009E9 D5               [16] 2002 	push	de
      0009EA 21 01 09         [12] 2003 	ld	hl, #0x901
      0009ED E5               [16] 2004 	push	hl
      0009EE 21 0D 03         [12] 2005 	ld	hl, #0x30d
      0009F1 E5               [16] 2006 	push	hl
      0009F2 CDr00r00         [24] 2007 	call	_set_bkg_tiles
      0009F5 E8 06            [16] 2008 	add	sp, #6
      0009F7                       2009 00114$:
                                   2010 ;src/dng_crawling.c:262: if(i==1) if(w[i]==d) set_bkg_tiles(14,3,2,9,door2_r_bkg); else set_bkg_tiles(14,3,2,9,wall2_r_bkg);
      0009F7 F8 0A            [12] 2011 	ldhl	sp,	#10
      0009F9 7E               [ 8] 2012 	ld	a, (hl)
      0009FA B7               [ 4] 2013 	or	a, a
      0009FB 28 31            [12] 2014 	jr	Z, 00119$
      0009FD F8 06            [12] 2015 	ldhl	sp,#6
      0009FF 2A               [ 8] 2016 	ld	a, (hl+)
      000A00 5F               [ 4] 2017 	ld	e, a
      000A01 56               [ 8] 2018 	ld	d, (hl)
      000A02 1A               [ 8] 2019 	ld	a, (de)
      000A03 47               [ 4] 2020 	ld	b, a
      000A04 F8 04            [12] 2021 	ldhl	sp,	#4
      000A06 7E               [ 8] 2022 	ld	a, (hl)
      000A07 90               [ 4] 2023 	sub	a, b
      000A08 20 13            [12] 2024 	jr	NZ, 00116$
      000A0A 11r00r00         [12] 2025 	ld	de, #_door2_r_bkg
      000A0D D5               [16] 2026 	push	de
      000A0E 21 02 09         [12] 2027 	ld	hl, #0x902
      000A11 E5               [16] 2028 	push	hl
      000A12 21 0E 03         [12] 2029 	ld	hl, #0x30e
      000A15 E5               [16] 2030 	push	hl
      000A16 CDr00r00         [24] 2031 	call	_set_bkg_tiles
      000A19 E8 06            [16] 2032 	add	sp, #6
      000A1B 18 11            [12] 2033 	jr	00119$
      000A1D                       2034 00116$:
      000A1D 11r00r00         [12] 2035 	ld	de, #_wall2_r_bkg
      000A20 D5               [16] 2036 	push	de
      000A21 21 02 09         [12] 2037 	ld	hl, #0x902
      000A24 E5               [16] 2038 	push	hl
      000A25 21 0E 03         [12] 2039 	ld	hl, #0x30e
      000A28 E5               [16] 2040 	push	hl
      000A29 CDr00r00         [24] 2041 	call	_set_bkg_tiles
      000A2C E8 06            [16] 2042 	add	sp, #6
      000A2E                       2043 00119$:
                                   2044 ;src/dng_crawling.c:263: if(i==0) if(w[i]==d) set_bkg_tiles(16,3,3,9,door1_r_bkg); else set_bkg_tiles(16,3,3,9,wall1_r_bkg);
      000A2E F8 0E            [12] 2045 	ldhl	sp,	#14
      000A30 7E               [ 8] 2046 	ld	a, (hl)
      000A31 B7               [ 4] 2047 	or	a, a
      000A32 C2r75r09         [16] 2048 	jp	NZ, 00158$
      000A35 F8 06            [12] 2049 	ldhl	sp,#6
      000A37 2A               [ 8] 2050 	ld	a, (hl+)
      000A38 5F               [ 4] 2051 	ld	e, a
      000A39 56               [ 8] 2052 	ld	d, (hl)
      000A3A 1A               [ 8] 2053 	ld	a, (de)
      000A3B 47               [ 4] 2054 	ld	b, a
      000A3C F8 04            [12] 2055 	ldhl	sp,	#4
      000A3E 7E               [ 8] 2056 	ld	a, (hl)
      000A3F 90               [ 4] 2057 	sub	a, b
      000A40 20 14            [12] 2058 	jr	NZ, 00121$
      000A42 11r00r00         [12] 2059 	ld	de, #_door1_r_bkg
      000A45 D5               [16] 2060 	push	de
      000A46 21 03 09         [12] 2061 	ld	hl, #0x903
      000A49 E5               [16] 2062 	push	hl
      000A4A 21 10 03         [12] 2063 	ld	hl, #0x310
      000A4D E5               [16] 2064 	push	hl
      000A4E CDr00r00         [24] 2065 	call	_set_bkg_tiles
      000A51 E8 06            [16] 2066 	add	sp, #6
      000A53 C3r75r09         [16] 2067 	jp	00158$
      000A56                       2068 00121$:
      000A56 11r00r00         [12] 2069 	ld	de, #_wall1_r_bkg
      000A59 D5               [16] 2070 	push	de
      000A5A 21 03 09         [12] 2071 	ld	hl, #0x903
      000A5D E5               [16] 2072 	push	hl
      000A5E 21 10 03         [12] 2073 	ld	hl, #0x310
      000A61 E5               [16] 2074 	push	hl
      000A62 CDr00r00         [24] 2075 	call	_set_bkg_tiles
      000A65 E8 06            [16] 2076 	add	sp, #6
      000A67 C3r75r09         [16] 2077 	jp	00158$
      000A6A                       2078 00145$:
                                   2079 ;src/dng_crawling.c:265: if(w[i]==0x00 && w[i+1]!=0x00 && w[i+1]!=0x01){
      000A6A F8 08            [12] 2080 	ldhl	sp,	#8
      000A6C 7E               [ 8] 2081 	ld	a, (hl)
      000A6D B7               [ 4] 2082 	or	a, a
      000A6E C2r75r09         [16] 2083 	jp	NZ, 00158$
      000A71 F8 0E            [12] 2084 	ldhl	sp,	#14
      000A73 7E               [ 8] 2085 	ld	a, (hl)
      000A74 3C               [ 4] 2086 	inc	a
      000A75 4F               [ 4] 2087 	ld	c, a
      000A76 07               [ 4] 2088 	rlca
      000A77 9F               [ 4] 2089 	sbc	a, a
      000A78 47               [ 4] 2090 	ld	b, a
      000A79 21 00 00         [12] 2091 	ld	hl, #0
      000A7C 39               [ 8] 2092 	add	hl, sp
      000A7D 09               [ 8] 2093 	add	hl, bc
      000A7E 5D               [ 4] 2094 	ld	e, l
      000A7F 54               [ 4] 2095 	ld	d, h
      000A80 1A               [ 8] 2096 	ld	a, (de)
      000A81 F8 08            [12] 2097 	ldhl	sp,	#8
      000A83 77               [ 8] 2098 	ld	(hl),a
      000A84 B7               [ 4] 2099 	or	a,a
      000A85 CAr75r09         [16] 2100 	jp	Z,00158$
      000A88 3D               [ 4] 2101 	dec	a
      000A89 CAr75r09         [16] 2102 	jp	Z,00158$
                                   2103 ;src/dng_crawling.c:266: if(i==2) if(w[i+1]==nd) set_bkg_tiles(13,3,6,9,nowall_door3_r_bkg); else set_bkg_tiles(13,3,6,9,nowall3_r_bkg);
      000A8C F8 09            [12] 2104 	ldhl	sp,	#9
      000A8E 7E               [ 8] 2105 	ld	a, (hl)
      000A8F B7               [ 4] 2106 	or	a, a
      000A90 28 30            [12] 2107 	jr	Z, 00129$
      000A92 F8 05            [12] 2108 	ldhl	sp,	#5
      000A94 7E               [ 8] 2109 	ld	a, (hl)
      000A95 F8 08            [12] 2110 	ldhl	sp,	#8
      000A97 96               [ 8] 2111 	sub	a, (hl)
      000A98 20 15            [12] 2112 	jr	NZ, 00126$
      000A9A D5               [16] 2113 	push	de
      000A9B 01r00r00         [12] 2114 	ld	bc, #_nowall_door3_r_bkg
      000A9E C5               [16] 2115 	push	bc
      000A9F 21 06 09         [12] 2116 	ld	hl, #0x906
      000AA2 E5               [16] 2117 	push	hl
      000AA3 21 0D 03         [12] 2118 	ld	hl, #0x30d
      000AA6 E5               [16] 2119 	push	hl
      000AA7 CDr00r00         [24] 2120 	call	_set_bkg_tiles
      000AAA E8 06            [16] 2121 	add	sp, #6
      000AAC D1               [12] 2122 	pop	de
      000AAD 18 13            [12] 2123 	jr	00129$
      000AAF                       2124 00126$:
      000AAF D5               [16] 2125 	push	de
      000AB0 01r00r00         [12] 2126 	ld	bc, #_nowall3_r_bkg
      000AB3 C5               [16] 2127 	push	bc
      000AB4 21 06 09         [12] 2128 	ld	hl, #0x906
      000AB7 E5               [16] 2129 	push	hl
      000AB8 21 0D 03         [12] 2130 	ld	hl, #0x30d
      000ABB E5               [16] 2131 	push	hl
      000ABC CDr00r00         [24] 2132 	call	_set_bkg_tiles
      000ABF E8 06            [16] 2133 	add	sp, #6
      000AC1 D1               [12] 2134 	pop	de
      000AC2                       2135 00129$:
                                   2136 ;src/dng_crawling.c:267: if(i==1) if(w[i+1]==nd) set_bkg_tiles(14,3,5,9,nowall_door2_r_bkg); else set_bkg_tiles(14,3,5,9,nowall2_r_bkg);
      000AC2 F8 0A            [12] 2137 	ldhl	sp,	#10
      000AC4 7E               [ 8] 2138 	ld	a, (hl)
      000AC5 B7               [ 4] 2139 	or	a, a
      000AC6 28 30            [12] 2140 	jr	Z, 00134$
      000AC8 1A               [ 8] 2141 	ld	a, (de)
      000AC9 4F               [ 4] 2142 	ld	c, a
      000ACA F8 05            [12] 2143 	ldhl	sp,	#5
      000ACC 7E               [ 8] 2144 	ld	a, (hl)
      000ACD 91               [ 4] 2145 	sub	a, c
      000ACE 20 15            [12] 2146 	jr	NZ, 00131$
      000AD0 D5               [16] 2147 	push	de
      000AD1 01r00r00         [12] 2148 	ld	bc, #_nowall_door2_r_bkg
      000AD4 C5               [16] 2149 	push	bc
      000AD5 21 05 09         [12] 2150 	ld	hl, #0x905
      000AD8 E5               [16] 2151 	push	hl
      000AD9 21 0E 03         [12] 2152 	ld	hl, #0x30e
      000ADC E5               [16] 2153 	push	hl
      000ADD CDr00r00         [24] 2154 	call	_set_bkg_tiles
      000AE0 E8 06            [16] 2155 	add	sp, #6
      000AE2 D1               [12] 2156 	pop	de
      000AE3 18 13            [12] 2157 	jr	00134$
      000AE5                       2158 00131$:
      000AE5 D5               [16] 2159 	push	de
      000AE6 01r00r00         [12] 2160 	ld	bc, #_nowall2_r_bkg
      000AE9 C5               [16] 2161 	push	bc
      000AEA 21 05 09         [12] 2162 	ld	hl, #0x905
      000AED E5               [16] 2163 	push	hl
      000AEE 21 0E 03         [12] 2164 	ld	hl, #0x30e
      000AF1 E5               [16] 2165 	push	hl
      000AF2 CDr00r00         [24] 2166 	call	_set_bkg_tiles
      000AF5 E8 06            [16] 2167 	add	sp, #6
      000AF7 D1               [12] 2168 	pop	de
      000AF8                       2169 00134$:
                                   2170 ;src/dng_crawling.c:268: if(i==0) if(w[i+1]==nd) set_bkg_tiles(16,3,3,9,nowall_door1_r_bkg); else set_bkg_tiles(16,3,3,9,nowall1_r_bkg);
      000AF8 F8 0E            [12] 2171 	ldhl	sp,	#14
      000AFA 7E               [ 8] 2172 	ld	a, (hl)
      000AFB B7               [ 4] 2173 	or	a, a
      000AFC C2r75r09         [16] 2174 	jp	NZ, 00158$
      000AFF 1A               [ 8] 2175 	ld	a, (de)
      000B00 47               [ 4] 2176 	ld	b, a
      000B01 F8 05            [12] 2177 	ldhl	sp,	#5
      000B03 7E               [ 8] 2178 	ld	a, (hl)
      000B04 90               [ 4] 2179 	sub	a, b
      000B05 20 14            [12] 2180 	jr	NZ, 00136$
      000B07 11r00r00         [12] 2181 	ld	de, #_nowall_door1_r_bkg
      000B0A D5               [16] 2182 	push	de
      000B0B 21 03 09         [12] 2183 	ld	hl, #0x903
      000B0E E5               [16] 2184 	push	hl
      000B0F 21 10 03         [12] 2185 	ld	hl, #0x310
      000B12 E5               [16] 2186 	push	hl
      000B13 CDr00r00         [24] 2187 	call	_set_bkg_tiles
      000B16 E8 06            [16] 2188 	add	sp, #6
      000B18 C3r75r09         [16] 2189 	jp	00158$
      000B1B                       2190 00136$:
      000B1B 11r00r00         [12] 2191 	ld	de, #_nowall1_r_bkg
      000B1E D5               [16] 2192 	push	de
      000B1F 21 03 09         [12] 2193 	ld	hl, #0x903
      000B22 E5               [16] 2194 	push	hl
      000B23 21 10 03         [12] 2195 	ld	hl, #0x310
      000B26 E5               [16] 2196 	push	hl
      000B27 CDr00r00         [24] 2197 	call	_set_bkg_tiles
      000B2A E8 06            [16] 2198 	add	sp, #6
      000B2C C3r75r09         [16] 2199 	jp	00158$
      000B2F                       2200 00160$:
                                   2201 ;src/dng_crawling.c:273: }
      000B2F E8 0F            [16] 2202 	add	sp, #15
      000B31 E1               [12] 2203 	pop	hl
      000B32 E8 04            [16] 2204 	add	sp, #4
      000B34 E9               [ 4] 2205 	jp	(hl)
                                   2206 ;src/dng_crawling.c:497: void check_r_walls_n(unsigned char* dng, uint8_t dungeon_width, uint8_t dungeon_hieght, uint8_t player_x, uint8_t player_y){
                                   2207 ;	---------------------------------
                                   2208 ; Function check_r_walls_n
                                   2209 ; ---------------------------------
      000B35                       2210 _check_r_walls_n::
      000B35 3B               [ 8] 2211 	dec	sp
      000B36 3B               [ 8] 2212 	dec	sp
      000B37 F8 01            [12] 2213 	ldhl	sp,	#1
      000B39 77               [ 8] 2214 	ld	(hl), a
                                   2215 ;src/dng_crawling.c:498: unsigned char w = return_value(dng,dungeon_width,dungeon_hieght,player_x+1, player_y-2);
      000B3A F8 06            [12] 2216 	ldhl	sp,	#6
      000B3C 4E               [ 8] 2217 	ld	c, (hl)
      000B3D 79               [ 4] 2218 	ld	a, c
      000B3E C6 FE            [ 8] 2219 	add	a, #0xfe
      000B40 F8 00            [12] 2220 	ldhl	sp,	#0
      000B42 77               [ 8] 2221 	ld	(hl), a
      000B43 F8 05            [12] 2222 	ldhl	sp,	#5
      000B45 46               [ 8] 2223 	ld	b, (hl)
      000B46 04               [ 4] 2224 	inc	b
      000B47 C5               [16] 2225 	push	bc
      000B48 D5               [16] 2226 	push	de
      000B49 F8 04            [12] 2227 	ldhl	sp,	#4
      000B4B 7E               [ 8] 2228 	ld	a, (hl)
      000B4C F5               [16] 2229 	push	af
      000B4D 33               [ 8] 2230 	inc	sp
      000B4E C5               [16] 2231 	push	bc
      000B4F 33               [ 8] 2232 	inc	sp
      000B50 F8 0A            [12] 2233 	ldhl	sp,	#10
      000B52 7E               [ 8] 2234 	ld	a, (hl)
      000B53 F5               [16] 2235 	push	af
      000B54 33               [ 8] 2236 	inc	sp
      000B55 F8 08            [12] 2237 	ldhl	sp,	#8
      000B57 7E               [ 8] 2238 	ld	a, (hl)
      000B58 CDr00r00         [24] 2239 	call	_return_value
      000B5B D1               [12] 2240 	pop	de
      000B5C C1               [12] 2241 	pop	bc
                                   2242 ;src/dng_crawling.c:499: if(w != 0x00 && w != 0x01){
      000B5D B7               [ 4] 2243 	or	a, a
      000B5E 28 32            [12] 2244 	jr	Z, 00111$
      000B60 FE 01            [ 8] 2245 	cp	a, #0x01
      000B62 28 2E            [12] 2246 	jr	Z, 00111$
                                   2247 ;src/dng_crawling.c:500: if( w == 0x04){
      000B64 D6 04            [ 8] 2248 	sub	a, #0x04
      000B66 20 15            [12] 2249 	jr	NZ, 00102$
                                   2250 ;src/dng_crawling.c:501: set_bkg_tiles(13,3,1,9,door3_r_bkg);
      000B68 D5               [16] 2251 	push	de
      000B69 21r00r00         [12] 2252 	ld	hl, #_door3_r_bkg
      000B6C E5               [16] 2253 	push	hl
      000B6D 21 01 09         [12] 2254 	ld	hl, #0x901
      000B70 E5               [16] 2255 	push	hl
      000B71 21 0D 03         [12] 2256 	ld	hl, #0x30d
      000B74 E5               [16] 2257 	push	hl
      000B75 CDr00r00         [24] 2258 	call	_set_bkg_tiles
      000B78 E8 06            [16] 2259 	add	sp, #6
      000B7A D1               [12] 2260 	pop	de
      000B7B 18 5E            [12] 2261 	jr	00112$
      000B7D                       2262 00102$:
                                   2263 ;src/dng_crawling.c:503: set_bkg_tiles(13,3,1,9,wall3_r_bkg);
      000B7D D5               [16] 2264 	push	de
      000B7E 21r00r00         [12] 2265 	ld	hl, #_wall3_r_bkg
      000B81 E5               [16] 2266 	push	hl
      000B82 21 01 09         [12] 2267 	ld	hl, #0x901
      000B85 E5               [16] 2268 	push	hl
      000B86 21 0D 03         [12] 2269 	ld	hl, #0x30d
      000B89 E5               [16] 2270 	push	hl
      000B8A CDr00r00         [24] 2271 	call	_set_bkg_tiles
      000B8D E8 06            [16] 2272 	add	sp, #6
      000B8F D1               [12] 2273 	pop	de
      000B90 18 49            [12] 2274 	jr	00112$
      000B92                       2275 00111$:
                                   2276 ;src/dng_crawling.c:506: w = return_value(dng,dungeon_width,dungeon_hieght,player_x+1, player_y-3);
      000B92 79               [ 4] 2277 	ld	a, c
      000B93 C6 FD            [ 8] 2278 	add	a, #0xfd
      000B95 C5               [16] 2279 	push	bc
      000B96 D5               [16] 2280 	push	de
      000B97 F5               [16] 2281 	push	af
      000B98 33               [ 8] 2282 	inc	sp
      000B99 C5               [16] 2283 	push	bc
      000B9A 33               [ 8] 2284 	inc	sp
      000B9B F8 0A            [12] 2285 	ldhl	sp,	#10
      000B9D 7E               [ 8] 2286 	ld	a, (hl)
      000B9E F5               [16] 2287 	push	af
      000B9F 33               [ 8] 2288 	inc	sp
      000BA0 F8 08            [12] 2289 	ldhl	sp,	#8
      000BA2 7E               [ 8] 2290 	ld	a, (hl)
      000BA3 CDr00r00         [24] 2291 	call	_return_value
      000BA6 D1               [12] 2292 	pop	de
      000BA7 C1               [12] 2293 	pop	bc
                                   2294 ;src/dng_crawling.c:507: if(w != 0x00 && w != 0x01){
      000BA8 B7               [ 4] 2295 	or	a, a
      000BA9 28 30            [12] 2296 	jr	Z, 00112$
      000BAB FE 01            [ 8] 2297 	cp	a, #0x01
      000BAD 28 2C            [12] 2298 	jr	Z, 00112$
                                   2299 ;src/dng_crawling.c:508: if( w == 0x03){
      000BAF D6 03            [ 8] 2300 	sub	a, #0x03
      000BB1 20 15            [12] 2301 	jr	NZ, 00105$
                                   2302 ;src/dng_crawling.c:509: set_bkg_tiles(13,3,6,9,nowall_door3_r_bkg);
      000BB3 D5               [16] 2303 	push	de
      000BB4 21r00r00         [12] 2304 	ld	hl, #_nowall_door3_r_bkg
      000BB7 E5               [16] 2305 	push	hl
      000BB8 21 06 09         [12] 2306 	ld	hl, #0x906
      000BBB E5               [16] 2307 	push	hl
      000BBC 21 0D 03         [12] 2308 	ld	hl, #0x30d
      000BBF E5               [16] 2309 	push	hl
      000BC0 CDr00r00         [24] 2310 	call	_set_bkg_tiles
      000BC3 E8 06            [16] 2311 	add	sp, #6
      000BC5 D1               [12] 2312 	pop	de
      000BC6 18 13            [12] 2313 	jr	00112$
      000BC8                       2314 00105$:
                                   2315 ;src/dng_crawling.c:511: set_bkg_tiles(13,3,6,9,nowall3_r_bkg);
      000BC8 D5               [16] 2316 	push	de
      000BC9 21r00r00         [12] 2317 	ld	hl, #_nowall3_r_bkg
      000BCC E5               [16] 2318 	push	hl
      000BCD 21 06 09         [12] 2319 	ld	hl, #0x906
      000BD0 E5               [16] 2320 	push	hl
      000BD1 21 0D 03         [12] 2321 	ld	hl, #0x30d
      000BD4 E5               [16] 2322 	push	hl
      000BD5 CDr00r00         [24] 2323 	call	_set_bkg_tiles
      000BD8 E8 06            [16] 2324 	add	sp, #6
      000BDA D1               [12] 2325 	pop	de
      000BDB                       2326 00112$:
                                   2327 ;src/dng_crawling.c:515: w = return_value(dng,dungeon_width,dungeon_hieght,player_x+1, player_y-1);
      000BDB 0D               [ 4] 2328 	dec	c
      000BDC C5               [16] 2329 	push	bc
      000BDD D5               [16] 2330 	push	de
      000BDE 79               [ 4] 2331 	ld	a, c
      000BDF F5               [16] 2332 	push	af
      000BE0 33               [ 8] 2333 	inc	sp
      000BE1 C5               [16] 2334 	push	bc
      000BE2 33               [ 8] 2335 	inc	sp
      000BE3 F8 0A            [12] 2336 	ldhl	sp,	#10
      000BE5 7E               [ 8] 2337 	ld	a, (hl)
      000BE6 F5               [16] 2338 	push	af
      000BE7 33               [ 8] 2339 	inc	sp
      000BE8 F8 08            [12] 2340 	ldhl	sp,	#8
      000BEA 7E               [ 8] 2341 	ld	a, (hl)
      000BEB CDr00r00         [24] 2342 	call	_return_value
      000BEE D1               [12] 2343 	pop	de
      000BEF C1               [12] 2344 	pop	bc
                                   2345 ;src/dng_crawling.c:516: if(w != 0x00 && w != 0x01){
      000BF0 B7               [ 4] 2346 	or	a, a
      000BF1 28 32            [12] 2347 	jr	Z, 00124$
      000BF3 FE 01            [ 8] 2348 	cp	a, #0x01
      000BF5 28 2E            [12] 2349 	jr	Z, 00124$
                                   2350 ;src/dng_crawling.c:517: if( w == 0x04){
      000BF7 D6 04            [ 8] 2351 	sub	a, #0x04
      000BF9 20 15            [12] 2352 	jr	NZ, 00115$
                                   2353 ;src/dng_crawling.c:518: set_bkg_tiles(14,3,2,9,door2_r_bkg);
      000BFB D5               [16] 2354 	push	de
      000BFC 21r00r00         [12] 2355 	ld	hl, #_door2_r_bkg
      000BFF E5               [16] 2356 	push	hl
      000C00 21 02 09         [12] 2357 	ld	hl, #0x902
      000C03 E5               [16] 2358 	push	hl
      000C04 21 0E 03         [12] 2359 	ld	hl, #0x30e
      000C07 E5               [16] 2360 	push	hl
      000C08 CDr00r00         [24] 2361 	call	_set_bkg_tiles
      000C0B E8 06            [16] 2362 	add	sp, #6
      000C0D D1               [12] 2363 	pop	de
      000C0E 18 5E            [12] 2364 	jr	00125$
      000C10                       2365 00115$:
                                   2366 ;src/dng_crawling.c:520: set_bkg_tiles(14,3,2,9,wall2_r_bkg);
      000C10 D5               [16] 2367 	push	de
      000C11 21r00r00         [12] 2368 	ld	hl, #_wall2_r_bkg
      000C14 E5               [16] 2369 	push	hl
      000C15 21 02 09         [12] 2370 	ld	hl, #0x902
      000C18 E5               [16] 2371 	push	hl
      000C19 21 0E 03         [12] 2372 	ld	hl, #0x30e
      000C1C E5               [16] 2373 	push	hl
      000C1D CDr00r00         [24] 2374 	call	_set_bkg_tiles
      000C20 E8 06            [16] 2375 	add	sp, #6
      000C22 D1               [12] 2376 	pop	de
      000C23 18 49            [12] 2377 	jr	00125$
      000C25                       2378 00124$:
                                   2379 ;src/dng_crawling.c:523: w = return_value(dng,dungeon_width,dungeon_hieght,player_x+1, player_y-2);
      000C25 C5               [16] 2380 	push	bc
      000C26 D5               [16] 2381 	push	de
      000C27 F8 04            [12] 2382 	ldhl	sp,	#4
      000C29 7E               [ 8] 2383 	ld	a, (hl)
      000C2A F5               [16] 2384 	push	af
      000C2B 33               [ 8] 2385 	inc	sp
      000C2C C5               [16] 2386 	push	bc
      000C2D 33               [ 8] 2387 	inc	sp
      000C2E F8 0A            [12] 2388 	ldhl	sp,	#10
      000C30 7E               [ 8] 2389 	ld	a, (hl)
      000C31 F5               [16] 2390 	push	af
      000C32 33               [ 8] 2391 	inc	sp
      000C33 F8 08            [12] 2392 	ldhl	sp,	#8
      000C35 7E               [ 8] 2393 	ld	a, (hl)
      000C36 CDr00r00         [24] 2394 	call	_return_value
      000C39 D1               [12] 2395 	pop	de
      000C3A C1               [12] 2396 	pop	bc
                                   2397 ;src/dng_crawling.c:524: if(w != 0x00 && w != 0x01){
      000C3B B7               [ 4] 2398 	or	a, a
      000C3C 28 30            [12] 2399 	jr	Z, 00125$
      000C3E FE 01            [ 8] 2400 	cp	a, #0x01
      000C40 28 2C            [12] 2401 	jr	Z, 00125$
                                   2402 ;src/dng_crawling.c:525: if( w == 0x03){
      000C42 D6 03            [ 8] 2403 	sub	a, #0x03
      000C44 20 15            [12] 2404 	jr	NZ, 00118$
                                   2405 ;src/dng_crawling.c:526: set_bkg_tiles(14,3,5,9,nowall_door2_r_bkg);
      000C46 D5               [16] 2406 	push	de
      000C47 21r00r00         [12] 2407 	ld	hl, #_nowall_door2_r_bkg
      000C4A E5               [16] 2408 	push	hl
      000C4B 21 05 09         [12] 2409 	ld	hl, #0x905
      000C4E E5               [16] 2410 	push	hl
      000C4F 21 0E 03         [12] 2411 	ld	hl, #0x30e
      000C52 E5               [16] 2412 	push	hl
      000C53 CDr00r00         [24] 2413 	call	_set_bkg_tiles
      000C56 E8 06            [16] 2414 	add	sp, #6
      000C58 D1               [12] 2415 	pop	de
      000C59 18 13            [12] 2416 	jr	00125$
      000C5B                       2417 00118$:
                                   2418 ;src/dng_crawling.c:528: set_bkg_tiles(14,3,5,9,nowall2_r_bkg);
      000C5B D5               [16] 2419 	push	de
      000C5C 21r00r00         [12] 2420 	ld	hl, #_nowall2_r_bkg
      000C5F E5               [16] 2421 	push	hl
      000C60 21 05 09         [12] 2422 	ld	hl, #0x905
      000C63 E5               [16] 2423 	push	hl
      000C64 21 0E 03         [12] 2424 	ld	hl, #0x30e
      000C67 E5               [16] 2425 	push	hl
      000C68 CDr00r00         [24] 2426 	call	_set_bkg_tiles
      000C6B E8 06            [16] 2427 	add	sp, #6
      000C6D D1               [12] 2428 	pop	de
      000C6E                       2429 00125$:
                                   2430 ;src/dng_crawling.c:533: w = return_value(dng,dungeon_width,dungeon_hieght,player_x+1, player_y);
      000C6E C5               [16] 2431 	push	bc
      000C6F D5               [16] 2432 	push	de
      000C70 F8 0A            [12] 2433 	ldhl	sp,	#10
      000C72 3A               [ 8] 2434 	ld	a, (hl-)
      000C73 2B               [ 8] 2435 	dec	hl
      000C74 F5               [16] 2436 	push	af
      000C75 33               [ 8] 2437 	inc	sp
      000C76 4E               [ 8] 2438 	ld	c, (hl)
      000C77 C5               [16] 2439 	push	bc
      000C78 F8 08            [12] 2440 	ldhl	sp,	#8
      000C7A 7E               [ 8] 2441 	ld	a, (hl)
      000C7B CDr00r00         [24] 2442 	call	_return_value
      000C7E D1               [12] 2443 	pop	de
      000C7F C1               [12] 2444 	pop	bc
                                   2445 ;src/dng_crawling.c:534: if(w!=0x00 && w != 0x01){
      000C80 B7               [ 4] 2446 	or	a, a
      000C81 28 36            [12] 2447 	jr	Z, 00137$
      000C83 FE 01            [ 8] 2448 	cp	a, #0x01
      000C85 28 32            [12] 2449 	jr	Z, 00137$
                                   2450 ;src/dng_crawling.c:535: if( w == 0x04){
      000C87 D6 04            [ 8] 2451 	sub	a, #0x04
      000C89 20 17            [12] 2452 	jr	NZ, 00128$
                                   2453 ;src/dng_crawling.c:536: set_bkg_tiles(16,3,3,9,door1_r_bkg);
      000C8B 11r00r00         [12] 2454 	ld	de, #_door1_r_bkg
      000C8E D5               [16] 2455 	push	de
      000C8F 21 03 09         [12] 2456 	ld	hl, #0x903
      000C92 E5               [16] 2457 	push	hl
      000C93 3E 03            [ 8] 2458 	ld	a, #0x03
      000C95 F5               [16] 2459 	push	af
      000C96 33               [ 8] 2460 	inc	sp
      000C97 3E 10            [ 8] 2461 	ld	a, #0x10
      000C99 F5               [16] 2462 	push	af
      000C9A 33               [ 8] 2463 	inc	sp
      000C9B CDr00r00         [24] 2464 	call	_set_bkg_tiles
      000C9E E8 06            [16] 2465 	add	sp, #6
      000CA0 18 5E            [12] 2466 	jr	00140$
      000CA2                       2467 00128$:
                                   2468 ;src/dng_crawling.c:538: set_bkg_tiles(16,3,3,9,wall1_r_bkg);
      000CA2 11r00r00         [12] 2469 	ld	de, #_wall1_r_bkg
      000CA5 D5               [16] 2470 	push	de
      000CA6 21 03 09         [12] 2471 	ld	hl, #0x903
      000CA9 E5               [16] 2472 	push	hl
      000CAA 3E 03            [ 8] 2473 	ld	a, #0x03
      000CAC F5               [16] 2474 	push	af
      000CAD 33               [ 8] 2475 	inc	sp
      000CAE 3E 10            [ 8] 2476 	ld	a, #0x10
      000CB0 F5               [16] 2477 	push	af
      000CB1 33               [ 8] 2478 	inc	sp
      000CB2 CDr00r00         [24] 2479 	call	_set_bkg_tiles
      000CB5 E8 06            [16] 2480 	add	sp, #6
      000CB7 18 47            [12] 2481 	jr	00140$
      000CB9                       2482 00137$:
                                   2483 ;src/dng_crawling.c:541: w = return_value(dng,dungeon_width,dungeon_hieght,player_x+1, player_y-1);
      000CB9 79               [ 4] 2484 	ld	a, c
      000CBA F5               [16] 2485 	push	af
      000CBB 33               [ 8] 2486 	inc	sp
      000CBC C5               [16] 2487 	push	bc
      000CBD 33               [ 8] 2488 	inc	sp
      000CBE F8 06            [12] 2489 	ldhl	sp,	#6
      000CC0 7E               [ 8] 2490 	ld	a, (hl)
      000CC1 F5               [16] 2491 	push	af
      000CC2 33               [ 8] 2492 	inc	sp
      000CC3 F8 04            [12] 2493 	ldhl	sp,	#4
      000CC5 7E               [ 8] 2494 	ld	a, (hl)
      000CC6 CDr00r00         [24] 2495 	call	_return_value
                                   2496 ;src/dng_crawling.c:542: if(w != 0x00 && w != 0x01){
      000CC9 B7               [ 4] 2497 	or	a, a
      000CCA 28 34            [12] 2498 	jr	Z, 00140$
      000CCC FE 01            [ 8] 2499 	cp	a, #0x01
      000CCE 28 30            [12] 2500 	jr	Z, 00140$
                                   2501 ;src/dng_crawling.c:543: if( w == 0x03){
      000CD0 D6 03            [ 8] 2502 	sub	a, #0x03
      000CD2 20 17            [12] 2503 	jr	NZ, 00131$
                                   2504 ;src/dng_crawling.c:544: set_bkg_tiles(16,3,3,9,nowall_door1_r_bkg);
      000CD4 11r00r00         [12] 2505 	ld	de, #_nowall_door1_r_bkg
      000CD7 D5               [16] 2506 	push	de
      000CD8 21 03 09         [12] 2507 	ld	hl, #0x903
      000CDB E5               [16] 2508 	push	hl
      000CDC 3E 03            [ 8] 2509 	ld	a, #0x03
      000CDE F5               [16] 2510 	push	af
      000CDF 33               [ 8] 2511 	inc	sp
      000CE0 3E 10            [ 8] 2512 	ld	a, #0x10
      000CE2 F5               [16] 2513 	push	af
      000CE3 33               [ 8] 2514 	inc	sp
      000CE4 CDr00r00         [24] 2515 	call	_set_bkg_tiles
      000CE7 E8 06            [16] 2516 	add	sp, #6
      000CE9 18 15            [12] 2517 	jr	00140$
      000CEB                       2518 00131$:
                                   2519 ;src/dng_crawling.c:546: set_bkg_tiles(16,3,3,9,nowall1_r_bkg);
      000CEB 11r00r00         [12] 2520 	ld	de, #_nowall1_r_bkg
      000CEE D5               [16] 2521 	push	de
      000CEF 21 03 09         [12] 2522 	ld	hl, #0x903
      000CF2 E5               [16] 2523 	push	hl
      000CF3 3E 03            [ 8] 2524 	ld	a, #0x03
      000CF5 F5               [16] 2525 	push	af
      000CF6 33               [ 8] 2526 	inc	sp
      000CF7 3E 10            [ 8] 2527 	ld	a, #0x10
      000CF9 F5               [16] 2528 	push	af
      000CFA 33               [ 8] 2529 	inc	sp
      000CFB CDr00r00         [24] 2530 	call	_set_bkg_tiles
      000CFE E8 06            [16] 2531 	add	sp, #6
      000D00                       2532 00140$:
                                   2533 ;src/dng_crawling.c:550: }
      000D00 33               [ 8] 2534 	inc	sp
      000D01 33               [ 8] 2535 	inc	sp
      000D02 E1               [12] 2536 	pop	hl
      000D03 E8 03            [16] 2537 	add	sp, #3
      000D05 E9               [ 4] 2538 	jp	(hl)
                                   2539 ;src/dng_crawling.c:552: void check_r_walls_e(unsigned char* dng, uint8_t dungeon_width, uint8_t dungeon_hieght, uint8_t player_x, uint8_t player_y){
                                   2540 ;	---------------------------------
                                   2541 ; Function check_r_walls_e
                                   2542 ; ---------------------------------
      000D06                       2543 _check_r_walls_e::
      000D06 3B               [ 8] 2544 	dec	sp
      000D07 3B               [ 8] 2545 	dec	sp
      000D08 F8 01            [12] 2546 	ldhl	sp,	#1
      000D0A 77               [ 8] 2547 	ld	(hl), a
                                   2548 ;src/dng_crawling.c:553: unsigned char w = return_value(dng,dungeon_width,dungeon_hieght,player_x+2, player_y+1);
      000D0B F8 06            [12] 2549 	ldhl	sp,	#6
      000D0D 3A               [ 8] 2550 	ld	a, (hl-)
      000D0E 47               [ 4] 2551 	ld	b, a
      000D0F 04               [ 4] 2552 	inc	b
      000D10 4E               [ 8] 2553 	ld	c, (hl)
      000D11 79               [ 4] 2554 	ld	a, c
      000D12 C6 02            [ 8] 2555 	add	a, #0x02
      000D14 F8 00            [12] 2556 	ldhl	sp,	#0
      000D16 77               [ 8] 2557 	ld	(hl), a
      000D17 C5               [16] 2558 	push	bc
      000D18 D5               [16] 2559 	push	de
      000D19 4E               [ 8] 2560 	ld	c, (hl)
      000D1A C5               [16] 2561 	push	bc
      000D1B F8 0A            [12] 2562 	ldhl	sp,	#10
      000D1D 7E               [ 8] 2563 	ld	a, (hl)
      000D1E F5               [16] 2564 	push	af
      000D1F 33               [ 8] 2565 	inc	sp
      000D20 F8 08            [12] 2566 	ldhl	sp,	#8
      000D22 7E               [ 8] 2567 	ld	a, (hl)
      000D23 CDr00r00         [24] 2568 	call	_return_value
      000D26 D1               [12] 2569 	pop	de
      000D27 C1               [12] 2570 	pop	bc
                                   2571 ;src/dng_crawling.c:554: if(w != 0x00 && w != 0x01){
      000D28 B7               [ 4] 2572 	or	a, a
      000D29 28 32            [12] 2573 	jr	Z, 00111$
      000D2B FE 01            [ 8] 2574 	cp	a, #0x01
      000D2D 28 2E            [12] 2575 	jr	Z, 00111$
                                   2576 ;src/dng_crawling.c:555: if( w == 0x05){
      000D2F D6 05            [ 8] 2577 	sub	a, #0x05
      000D31 20 15            [12] 2578 	jr	NZ, 00102$
                                   2579 ;src/dng_crawling.c:556: set_bkg_tiles(13,3,1,9,door3_r_bkg);
      000D33 D5               [16] 2580 	push	de
      000D34 21r00r00         [12] 2581 	ld	hl, #_door3_r_bkg
      000D37 E5               [16] 2582 	push	hl
      000D38 21 01 09         [12] 2583 	ld	hl, #0x901
      000D3B E5               [16] 2584 	push	hl
      000D3C 21 0D 03         [12] 2585 	ld	hl, #0x30d
      000D3F E5               [16] 2586 	push	hl
      000D40 CDr00r00         [24] 2587 	call	_set_bkg_tiles
      000D43 E8 06            [16] 2588 	add	sp, #6
      000D45 D1               [12] 2589 	pop	de
      000D46 18 5F            [12] 2590 	jr	00112$
      000D48                       2591 00102$:
                                   2592 ;src/dng_crawling.c:558: set_bkg_tiles(13,3,1,9,wall3_r_bkg);
      000D48 D5               [16] 2593 	push	de
      000D49 21r00r00         [12] 2594 	ld	hl, #_wall3_r_bkg
      000D4C E5               [16] 2595 	push	hl
      000D4D 21 01 09         [12] 2596 	ld	hl, #0x901
      000D50 E5               [16] 2597 	push	hl
      000D51 21 0D 03         [12] 2598 	ld	hl, #0x30d
      000D54 E5               [16] 2599 	push	hl
      000D55 CDr00r00         [24] 2600 	call	_set_bkg_tiles
      000D58 E8 06            [16] 2601 	add	sp, #6
      000D5A D1               [12] 2602 	pop	de
      000D5B 18 4A            [12] 2603 	jr	00112$
      000D5D                       2604 00111$:
                                   2605 ;src/dng_crawling.c:561: w = return_value(dng,dungeon_width,dungeon_hieght,player_x+3, player_y+1);
      000D5D 79               [ 4] 2606 	ld	a, c
      000D5E 3C               [ 4] 2607 	inc	a
      000D5F 3C               [ 4] 2608 	inc	a
      000D60 3C               [ 4] 2609 	inc	a
      000D61 C5               [16] 2610 	push	bc
      000D62 D5               [16] 2611 	push	de
      000D63 C5               [16] 2612 	push	bc
      000D64 33               [ 8] 2613 	inc	sp
      000D65 F5               [16] 2614 	push	af
      000D66 33               [ 8] 2615 	inc	sp
      000D67 F8 0A            [12] 2616 	ldhl	sp,	#10
      000D69 7E               [ 8] 2617 	ld	a, (hl)
      000D6A F5               [16] 2618 	push	af
      000D6B 33               [ 8] 2619 	inc	sp
      000D6C F8 08            [12] 2620 	ldhl	sp,	#8
      000D6E 7E               [ 8] 2621 	ld	a, (hl)
      000D6F CDr00r00         [24] 2622 	call	_return_value
      000D72 D1               [12] 2623 	pop	de
      000D73 C1               [12] 2624 	pop	bc
                                   2625 ;src/dng_crawling.c:562: if(w != 0x00 && w != 0x01){
      000D74 B7               [ 4] 2626 	or	a, a
      000D75 28 30            [12] 2627 	jr	Z, 00112$
      000D77 FE 01            [ 8] 2628 	cp	a, #0x01
      000D79 28 2C            [12] 2629 	jr	Z, 00112$
                                   2630 ;src/dng_crawling.c:563: if( w == 0x04){
      000D7B D6 04            [ 8] 2631 	sub	a, #0x04
      000D7D 20 15            [12] 2632 	jr	NZ, 00105$
                                   2633 ;src/dng_crawling.c:564: set_bkg_tiles(13,3,6,9,nowall_door3_r_bkg);
      000D7F D5               [16] 2634 	push	de
      000D80 21r00r00         [12] 2635 	ld	hl, #_nowall_door3_r_bkg
      000D83 E5               [16] 2636 	push	hl
      000D84 21 06 09         [12] 2637 	ld	hl, #0x906
      000D87 E5               [16] 2638 	push	hl
      000D88 21 0D 03         [12] 2639 	ld	hl, #0x30d
      000D8B E5               [16] 2640 	push	hl
      000D8C CDr00r00         [24] 2641 	call	_set_bkg_tiles
      000D8F E8 06            [16] 2642 	add	sp, #6
      000D91 D1               [12] 2643 	pop	de
      000D92 18 13            [12] 2644 	jr	00112$
      000D94                       2645 00105$:
                                   2646 ;src/dng_crawling.c:566: set_bkg_tiles(13,3,6,9,nowall3_r_bkg);
      000D94 D5               [16] 2647 	push	de
      000D95 21r00r00         [12] 2648 	ld	hl, #_nowall3_r_bkg
      000D98 E5               [16] 2649 	push	hl
      000D99 21 06 09         [12] 2650 	ld	hl, #0x906
      000D9C E5               [16] 2651 	push	hl
      000D9D 21 0D 03         [12] 2652 	ld	hl, #0x30d
      000DA0 E5               [16] 2653 	push	hl
      000DA1 CDr00r00         [24] 2654 	call	_set_bkg_tiles
      000DA4 E8 06            [16] 2655 	add	sp, #6
      000DA6 D1               [12] 2656 	pop	de
      000DA7                       2657 00112$:
                                   2658 ;src/dng_crawling.c:570: w = return_value(dng,dungeon_width,dungeon_hieght,player_x+1, player_y+1);
      000DA7 0C               [ 4] 2659 	inc	c
      000DA8 C5               [16] 2660 	push	bc
      000DA9 D5               [16] 2661 	push	de
      000DAA C5               [16] 2662 	push	bc
      000DAB F8 0A            [12] 2663 	ldhl	sp,	#10
      000DAD 7E               [ 8] 2664 	ld	a, (hl)
      000DAE F5               [16] 2665 	push	af
      000DAF 33               [ 8] 2666 	inc	sp
      000DB0 F8 08            [12] 2667 	ldhl	sp,	#8
      000DB2 7E               [ 8] 2668 	ld	a, (hl)
      000DB3 CDr00r00         [24] 2669 	call	_return_value
      000DB6 D1               [12] 2670 	pop	de
      000DB7 C1               [12] 2671 	pop	bc
                                   2672 ;src/dng_crawling.c:571: if(w != 0x00 && w != 0x01){
      000DB8 B7               [ 4] 2673 	or	a, a
      000DB9 28 32            [12] 2674 	jr	Z, 00124$
      000DBB FE 01            [ 8] 2675 	cp	a, #0x01
      000DBD 28 2E            [12] 2676 	jr	Z, 00124$
                                   2677 ;src/dng_crawling.c:572: if( w == 0x05){
      000DBF D6 05            [ 8] 2678 	sub	a, #0x05
      000DC1 20 15            [12] 2679 	jr	NZ, 00115$
                                   2680 ;src/dng_crawling.c:573: set_bkg_tiles(14,3,2,9,door2_r_bkg);
      000DC3 D5               [16] 2681 	push	de
      000DC4 21r00r00         [12] 2682 	ld	hl, #_door2_r_bkg
      000DC7 E5               [16] 2683 	push	hl
      000DC8 21 02 09         [12] 2684 	ld	hl, #0x902
      000DCB E5               [16] 2685 	push	hl
      000DCC 21 0E 03         [12] 2686 	ld	hl, #0x30e
      000DCF E5               [16] 2687 	push	hl
      000DD0 CDr00r00         [24] 2688 	call	_set_bkg_tiles
      000DD3 E8 06            [16] 2689 	add	sp, #6
      000DD5 D1               [12] 2690 	pop	de
      000DD6 18 5E            [12] 2691 	jr	00125$
      000DD8                       2692 00115$:
                                   2693 ;src/dng_crawling.c:575: set_bkg_tiles(14,3,2,9,wall2_r_bkg);
      000DD8 D5               [16] 2694 	push	de
      000DD9 21r00r00         [12] 2695 	ld	hl, #_wall2_r_bkg
      000DDC E5               [16] 2696 	push	hl
      000DDD 21 02 09         [12] 2697 	ld	hl, #0x902
      000DE0 E5               [16] 2698 	push	hl
      000DE1 21 0E 03         [12] 2699 	ld	hl, #0x30e
      000DE4 E5               [16] 2700 	push	hl
      000DE5 CDr00r00         [24] 2701 	call	_set_bkg_tiles
      000DE8 E8 06            [16] 2702 	add	sp, #6
      000DEA D1               [12] 2703 	pop	de
      000DEB 18 49            [12] 2704 	jr	00125$
      000DED                       2705 00124$:
                                   2706 ;src/dng_crawling.c:578: w = return_value(dng,dungeon_width,dungeon_hieght,player_x+2, player_y+1);
      000DED C5               [16] 2707 	push	bc
      000DEE D5               [16] 2708 	push	de
      000DEF C5               [16] 2709 	push	bc
      000DF0 33               [ 8] 2710 	inc	sp
      000DF1 F8 05            [12] 2711 	ldhl	sp,	#5
      000DF3 7E               [ 8] 2712 	ld	a, (hl)
      000DF4 F5               [16] 2713 	push	af
      000DF5 33               [ 8] 2714 	inc	sp
      000DF6 F8 0A            [12] 2715 	ldhl	sp,	#10
      000DF8 7E               [ 8] 2716 	ld	a, (hl)
      000DF9 F5               [16] 2717 	push	af
      000DFA 33               [ 8] 2718 	inc	sp
      000DFB F8 08            [12] 2719 	ldhl	sp,	#8
      000DFD 7E               [ 8] 2720 	ld	a, (hl)
      000DFE CDr00r00         [24] 2721 	call	_return_value
      000E01 D1               [12] 2722 	pop	de
      000E02 C1               [12] 2723 	pop	bc
                                   2724 ;src/dng_crawling.c:579: if(w != 0x00 && w != 0x01){
      000E03 B7               [ 4] 2725 	or	a, a
      000E04 28 30            [12] 2726 	jr	Z, 00125$
      000E06 FE 01            [ 8] 2727 	cp	a, #0x01
      000E08 28 2C            [12] 2728 	jr	Z, 00125$
                                   2729 ;src/dng_crawling.c:580: if( w == 0x04){
      000E0A D6 04            [ 8] 2730 	sub	a, #0x04
      000E0C 20 15            [12] 2731 	jr	NZ, 00118$
                                   2732 ;src/dng_crawling.c:581: set_bkg_tiles(14,3,5,9,nowall_door2_r_bkg);
      000E0E D5               [16] 2733 	push	de
      000E0F 21r00r00         [12] 2734 	ld	hl, #_nowall_door2_r_bkg
      000E12 E5               [16] 2735 	push	hl
      000E13 21 05 09         [12] 2736 	ld	hl, #0x905
      000E16 E5               [16] 2737 	push	hl
      000E17 21 0E 03         [12] 2738 	ld	hl, #0x30e
      000E1A E5               [16] 2739 	push	hl
      000E1B CDr00r00         [24] 2740 	call	_set_bkg_tiles
      000E1E E8 06            [16] 2741 	add	sp, #6
      000E20 D1               [12] 2742 	pop	de
      000E21 18 13            [12] 2743 	jr	00125$
      000E23                       2744 00118$:
                                   2745 ;src/dng_crawling.c:583: set_bkg_tiles(14,3,5,9,nowall2_r_bkg);
      000E23 D5               [16] 2746 	push	de
      000E24 21r00r00         [12] 2747 	ld	hl, #_nowall2_r_bkg
      000E27 E5               [16] 2748 	push	hl
      000E28 21 05 09         [12] 2749 	ld	hl, #0x905
      000E2B E5               [16] 2750 	push	hl
      000E2C 21 0E 03         [12] 2751 	ld	hl, #0x30e
      000E2F E5               [16] 2752 	push	hl
      000E30 CDr00r00         [24] 2753 	call	_set_bkg_tiles
      000E33 E8 06            [16] 2754 	add	sp, #6
      000E35 D1               [12] 2755 	pop	de
      000E36                       2756 00125$:
                                   2757 ;src/dng_crawling.c:588: w = return_value(dng,dungeon_width,dungeon_hieght,player_x, player_y+1);
      000E36 C5               [16] 2758 	push	bc
      000E37 D5               [16] 2759 	push	de
      000E38 C5               [16] 2760 	push	bc
      000E39 33               [ 8] 2761 	inc	sp
      000E3A F8 0A            [12] 2762 	ldhl	sp,	#10
      000E3C 3A               [ 8] 2763 	ld	a, (hl-)
      000E3D 47               [ 4] 2764 	ld	b, a
      000E3E 4E               [ 8] 2765 	ld	c, (hl)
      000E3F C5               [16] 2766 	push	bc
      000E40 F8 08            [12] 2767 	ldhl	sp,	#8
      000E42 7E               [ 8] 2768 	ld	a, (hl)
      000E43 CDr00r00         [24] 2769 	call	_return_value
      000E46 D1               [12] 2770 	pop	de
      000E47 C1               [12] 2771 	pop	bc
                                   2772 ;src/dng_crawling.c:589: if(w!=0x00 && w != 0x01){
      000E48 B7               [ 4] 2773 	or	a, a
      000E49 28 36            [12] 2774 	jr	Z, 00137$
      000E4B FE 01            [ 8] 2775 	cp	a, #0x01
      000E4D 28 32            [12] 2776 	jr	Z, 00137$
                                   2777 ;src/dng_crawling.c:590: if( w == 0x05){
      000E4F D6 05            [ 8] 2778 	sub	a, #0x05
      000E51 20 17            [12] 2779 	jr	NZ, 00128$
                                   2780 ;src/dng_crawling.c:591: set_bkg_tiles(16,3,3,9,door1_r_bkg);
      000E53 11r00r00         [12] 2781 	ld	de, #_door1_r_bkg
      000E56 D5               [16] 2782 	push	de
      000E57 21 03 09         [12] 2783 	ld	hl, #0x903
      000E5A E5               [16] 2784 	push	hl
      000E5B 3E 03            [ 8] 2785 	ld	a, #0x03
      000E5D F5               [16] 2786 	push	af
      000E5E 33               [ 8] 2787 	inc	sp
      000E5F 3E 10            [ 8] 2788 	ld	a, #0x10
      000E61 F5               [16] 2789 	push	af
      000E62 33               [ 8] 2790 	inc	sp
      000E63 CDr00r00         [24] 2791 	call	_set_bkg_tiles
      000E66 E8 06            [16] 2792 	add	sp, #6
      000E68 18 5A            [12] 2793 	jr	00140$
      000E6A                       2794 00128$:
                                   2795 ;src/dng_crawling.c:593: set_bkg_tiles(16,3,3,9,wall1_r_bkg);
      000E6A 11r00r00         [12] 2796 	ld	de, #_wall1_r_bkg
      000E6D D5               [16] 2797 	push	de
      000E6E 21 03 09         [12] 2798 	ld	hl, #0x903
      000E71 E5               [16] 2799 	push	hl
      000E72 3E 03            [ 8] 2800 	ld	a, #0x03
      000E74 F5               [16] 2801 	push	af
      000E75 33               [ 8] 2802 	inc	sp
      000E76 3E 10            [ 8] 2803 	ld	a, #0x10
      000E78 F5               [16] 2804 	push	af
      000E79 33               [ 8] 2805 	inc	sp
      000E7A CDr00r00         [24] 2806 	call	_set_bkg_tiles
      000E7D E8 06            [16] 2807 	add	sp, #6
      000E7F 18 43            [12] 2808 	jr	00140$
      000E81                       2809 00137$:
                                   2810 ;src/dng_crawling.c:596: w = return_value(dng,dungeon_width,dungeon_hieght,player_x+1, player_y+1);
      000E81 C5               [16] 2811 	push	bc
      000E82 F8 06            [12] 2812 	ldhl	sp,	#6
      000E84 7E               [ 8] 2813 	ld	a, (hl)
      000E85 F5               [16] 2814 	push	af
      000E86 33               [ 8] 2815 	inc	sp
      000E87 F8 04            [12] 2816 	ldhl	sp,	#4
      000E89 7E               [ 8] 2817 	ld	a, (hl)
      000E8A CDr00r00         [24] 2818 	call	_return_value
                                   2819 ;src/dng_crawling.c:597: if(w != 0x00 && w != 0x01){
      000E8D B7               [ 4] 2820 	or	a, a
      000E8E 28 34            [12] 2821 	jr	Z, 00140$
      000E90 FE 01            [ 8] 2822 	cp	a, #0x01
      000E92 28 30            [12] 2823 	jr	Z, 00140$
                                   2824 ;src/dng_crawling.c:598: if( w == 0x04){
      000E94 D6 04            [ 8] 2825 	sub	a, #0x04
      000E96 20 17            [12] 2826 	jr	NZ, 00131$
                                   2827 ;src/dng_crawling.c:599: set_bkg_tiles(16,3,3,9,nowall_door1_r_bkg);
      000E98 11r00r00         [12] 2828 	ld	de, #_nowall_door1_r_bkg
      000E9B D5               [16] 2829 	push	de
      000E9C 21 03 09         [12] 2830 	ld	hl, #0x903
      000E9F E5               [16] 2831 	push	hl
      000EA0 3E 03            [ 8] 2832 	ld	a, #0x03
      000EA2 F5               [16] 2833 	push	af
      000EA3 33               [ 8] 2834 	inc	sp
      000EA4 3E 10            [ 8] 2835 	ld	a, #0x10
      000EA6 F5               [16] 2836 	push	af
      000EA7 33               [ 8] 2837 	inc	sp
      000EA8 CDr00r00         [24] 2838 	call	_set_bkg_tiles
      000EAB E8 06            [16] 2839 	add	sp, #6
      000EAD 18 15            [12] 2840 	jr	00140$
      000EAF                       2841 00131$:
                                   2842 ;src/dng_crawling.c:601: set_bkg_tiles(16,3,3,9,nowall1_r_bkg);
      000EAF 11r00r00         [12] 2843 	ld	de, #_nowall1_r_bkg
      000EB2 D5               [16] 2844 	push	de
      000EB3 21 03 09         [12] 2845 	ld	hl, #0x903
      000EB6 E5               [16] 2846 	push	hl
      000EB7 3E 03            [ 8] 2847 	ld	a, #0x03
      000EB9 F5               [16] 2848 	push	af
      000EBA 33               [ 8] 2849 	inc	sp
      000EBB 3E 10            [ 8] 2850 	ld	a, #0x10
      000EBD F5               [16] 2851 	push	af
      000EBE 33               [ 8] 2852 	inc	sp
      000EBF CDr00r00         [24] 2853 	call	_set_bkg_tiles
      000EC2 E8 06            [16] 2854 	add	sp, #6
      000EC4                       2855 00140$:
                                   2856 ;src/dng_crawling.c:605: }
      000EC4 33               [ 8] 2857 	inc	sp
      000EC5 33               [ 8] 2858 	inc	sp
      000EC6 E1               [12] 2859 	pop	hl
      000EC7 E8 03            [16] 2860 	add	sp, #3
      000EC9 E9               [ 4] 2861 	jp	(hl)
                                   2862 ;src/dng_crawling.c:607: void check_r_walls_s(unsigned char* dng, uint8_t dungeon_width, uint8_t dungeon_hieght, uint8_t player_x, uint8_t player_y){
                                   2863 ;	---------------------------------
                                   2864 ; Function check_r_walls_s
                                   2865 ; ---------------------------------
      000ECA                       2866 _check_r_walls_s::
      000ECA 3B               [ 8] 2867 	dec	sp
      000ECB 3B               [ 8] 2868 	dec	sp
      000ECC F8 01            [12] 2869 	ldhl	sp,	#1
      000ECE 77               [ 8] 2870 	ld	(hl), a
                                   2871 ;src/dng_crawling.c:608: unsigned char w = return_value(dng,dungeon_width,dungeon_hieght,player_x-1, player_y+2);
      000ECF F8 06            [12] 2872 	ldhl	sp,	#6
      000ED1 4E               [ 8] 2873 	ld	c, (hl)
      000ED2 79               [ 4] 2874 	ld	a, c
      000ED3 C6 02            [ 8] 2875 	add	a, #0x02
      000ED5 F8 00            [12] 2876 	ldhl	sp,	#0
      000ED7 77               [ 8] 2877 	ld	(hl), a
      000ED8 F8 05            [12] 2878 	ldhl	sp,	#5
      000EDA 46               [ 8] 2879 	ld	b, (hl)
      000EDB 05               [ 4] 2880 	dec	b
      000EDC C5               [16] 2881 	push	bc
      000EDD D5               [16] 2882 	push	de
      000EDE F8 04            [12] 2883 	ldhl	sp,	#4
      000EE0 7E               [ 8] 2884 	ld	a, (hl)
      000EE1 F5               [16] 2885 	push	af
      000EE2 33               [ 8] 2886 	inc	sp
      000EE3 C5               [16] 2887 	push	bc
      000EE4 33               [ 8] 2888 	inc	sp
      000EE5 F8 0A            [12] 2889 	ldhl	sp,	#10
      000EE7 7E               [ 8] 2890 	ld	a, (hl)
      000EE8 F5               [16] 2891 	push	af
      000EE9 33               [ 8] 2892 	inc	sp
      000EEA F8 08            [12] 2893 	ldhl	sp,	#8
      000EEC 7E               [ 8] 2894 	ld	a, (hl)
      000EED CDr00r00         [24] 2895 	call	_return_value
      000EF0 D1               [12] 2896 	pop	de
      000EF1 C1               [12] 2897 	pop	bc
                                   2898 ;src/dng_crawling.c:609: if(w != 0x00 && w != 0x01){
      000EF2 B7               [ 4] 2899 	or	a, a
      000EF3 28 32            [12] 2900 	jr	Z, 00111$
      000EF5 FE 01            [ 8] 2901 	cp	a, #0x01
      000EF7 28 2E            [12] 2902 	jr	Z, 00111$
                                   2903 ;src/dng_crawling.c:610: if( w == 0x06){
      000EF9 D6 06            [ 8] 2904 	sub	a, #0x06
      000EFB 20 15            [12] 2905 	jr	NZ, 00102$
                                   2906 ;src/dng_crawling.c:611: set_bkg_tiles(13,3,1,9,door3_r_bkg);
      000EFD D5               [16] 2907 	push	de
      000EFE 21r00r00         [12] 2908 	ld	hl, #_door3_r_bkg
      000F01 E5               [16] 2909 	push	hl
      000F02 21 01 09         [12] 2910 	ld	hl, #0x901
      000F05 E5               [16] 2911 	push	hl
      000F06 21 0D 03         [12] 2912 	ld	hl, #0x30d
      000F09 E5               [16] 2913 	push	hl
      000F0A CDr00r00         [24] 2914 	call	_set_bkg_tiles
      000F0D E8 06            [16] 2915 	add	sp, #6
      000F0F D1               [12] 2916 	pop	de
      000F10 18 5F            [12] 2917 	jr	00112$
      000F12                       2918 00102$:
                                   2919 ;src/dng_crawling.c:613: set_bkg_tiles(13,3,1,9,wall3_r_bkg);
      000F12 D5               [16] 2920 	push	de
      000F13 21r00r00         [12] 2921 	ld	hl, #_wall3_r_bkg
      000F16 E5               [16] 2922 	push	hl
      000F17 21 01 09         [12] 2923 	ld	hl, #0x901
      000F1A E5               [16] 2924 	push	hl
      000F1B 21 0D 03         [12] 2925 	ld	hl, #0x30d
      000F1E E5               [16] 2926 	push	hl
      000F1F CDr00r00         [24] 2927 	call	_set_bkg_tiles
      000F22 E8 06            [16] 2928 	add	sp, #6
      000F24 D1               [12] 2929 	pop	de
      000F25 18 4A            [12] 2930 	jr	00112$
      000F27                       2931 00111$:
                                   2932 ;src/dng_crawling.c:616: w = return_value(dng,dungeon_width,dungeon_hieght,player_x-1, player_y+3);
      000F27 79               [ 4] 2933 	ld	a, c
      000F28 3C               [ 4] 2934 	inc	a
      000F29 3C               [ 4] 2935 	inc	a
      000F2A 3C               [ 4] 2936 	inc	a
      000F2B C5               [16] 2937 	push	bc
      000F2C D5               [16] 2938 	push	de
      000F2D F5               [16] 2939 	push	af
      000F2E 33               [ 8] 2940 	inc	sp
      000F2F C5               [16] 2941 	push	bc
      000F30 33               [ 8] 2942 	inc	sp
      000F31 F8 0A            [12] 2943 	ldhl	sp,	#10
      000F33 7E               [ 8] 2944 	ld	a, (hl)
      000F34 F5               [16] 2945 	push	af
      000F35 33               [ 8] 2946 	inc	sp
      000F36 F8 08            [12] 2947 	ldhl	sp,	#8
      000F38 7E               [ 8] 2948 	ld	a, (hl)
      000F39 CDr00r00         [24] 2949 	call	_return_value
      000F3C D1               [12] 2950 	pop	de
      000F3D C1               [12] 2951 	pop	bc
                                   2952 ;src/dng_crawling.c:617: if(w != 0x00 && w != 0x01){
      000F3E B7               [ 4] 2953 	or	a, a
      000F3F 28 30            [12] 2954 	jr	Z, 00112$
      000F41 FE 01            [ 8] 2955 	cp	a, #0x01
      000F43 28 2C            [12] 2956 	jr	Z, 00112$
                                   2957 ;src/dng_crawling.c:618: if( w == 0x05){
      000F45 D6 05            [ 8] 2958 	sub	a, #0x05
      000F47 20 15            [12] 2959 	jr	NZ, 00105$
                                   2960 ;src/dng_crawling.c:619: set_bkg_tiles(13,3,6,9,nowall_door3_r_bkg);
      000F49 D5               [16] 2961 	push	de
      000F4A 21r00r00         [12] 2962 	ld	hl, #_nowall_door3_r_bkg
      000F4D E5               [16] 2963 	push	hl
      000F4E 21 06 09         [12] 2964 	ld	hl, #0x906
      000F51 E5               [16] 2965 	push	hl
      000F52 21 0D 03         [12] 2966 	ld	hl, #0x30d
      000F55 E5               [16] 2967 	push	hl
      000F56 CDr00r00         [24] 2968 	call	_set_bkg_tiles
      000F59 E8 06            [16] 2969 	add	sp, #6
      000F5B D1               [12] 2970 	pop	de
      000F5C 18 13            [12] 2971 	jr	00112$
      000F5E                       2972 00105$:
                                   2973 ;src/dng_crawling.c:621: set_bkg_tiles(13,3,6,9,nowall3_r_bkg);
      000F5E D5               [16] 2974 	push	de
      000F5F 21r00r00         [12] 2975 	ld	hl, #_nowall3_r_bkg
      000F62 E5               [16] 2976 	push	hl
      000F63 21 06 09         [12] 2977 	ld	hl, #0x906
      000F66 E5               [16] 2978 	push	hl
      000F67 21 0D 03         [12] 2979 	ld	hl, #0x30d
      000F6A E5               [16] 2980 	push	hl
      000F6B CDr00r00         [24] 2981 	call	_set_bkg_tiles
      000F6E E8 06            [16] 2982 	add	sp, #6
      000F70 D1               [12] 2983 	pop	de
      000F71                       2984 00112$:
                                   2985 ;src/dng_crawling.c:625: w = return_value(dng,dungeon_width,dungeon_hieght,player_x-1, player_y+1);
      000F71 0C               [ 4] 2986 	inc	c
      000F72 C5               [16] 2987 	push	bc
      000F73 D5               [16] 2988 	push	de
      000F74 79               [ 4] 2989 	ld	a, c
      000F75 F5               [16] 2990 	push	af
      000F76 33               [ 8] 2991 	inc	sp
      000F77 C5               [16] 2992 	push	bc
      000F78 33               [ 8] 2993 	inc	sp
      000F79 F8 0A            [12] 2994 	ldhl	sp,	#10
      000F7B 7E               [ 8] 2995 	ld	a, (hl)
      000F7C F5               [16] 2996 	push	af
      000F7D 33               [ 8] 2997 	inc	sp
      000F7E F8 08            [12] 2998 	ldhl	sp,	#8
      000F80 7E               [ 8] 2999 	ld	a, (hl)
      000F81 CDr00r00         [24] 3000 	call	_return_value
      000F84 D1               [12] 3001 	pop	de
      000F85 C1               [12] 3002 	pop	bc
                                   3003 ;src/dng_crawling.c:626: if(w != 0x00 && w != 0x01){
      000F86 B7               [ 4] 3004 	or	a, a
      000F87 28 32            [12] 3005 	jr	Z, 00124$
      000F89 FE 01            [ 8] 3006 	cp	a, #0x01
      000F8B 28 2E            [12] 3007 	jr	Z, 00124$
                                   3008 ;src/dng_crawling.c:627: if( w == 0x06){
      000F8D D6 06            [ 8] 3009 	sub	a, #0x06
      000F8F 20 15            [12] 3010 	jr	NZ, 00115$
                                   3011 ;src/dng_crawling.c:628: set_bkg_tiles(14,3,2,9,door2_r_bkg);
      000F91 D5               [16] 3012 	push	de
      000F92 21r00r00         [12] 3013 	ld	hl, #_door2_r_bkg
      000F95 E5               [16] 3014 	push	hl
      000F96 21 02 09         [12] 3015 	ld	hl, #0x902
      000F99 E5               [16] 3016 	push	hl
      000F9A 21 0E 03         [12] 3017 	ld	hl, #0x30e
      000F9D E5               [16] 3018 	push	hl
      000F9E CDr00r00         [24] 3019 	call	_set_bkg_tiles
      000FA1 E8 06            [16] 3020 	add	sp, #6
      000FA3 D1               [12] 3021 	pop	de
      000FA4 18 5E            [12] 3022 	jr	00125$
      000FA6                       3023 00115$:
                                   3024 ;src/dng_crawling.c:630: set_bkg_tiles(14,3,2,9,wall2_r_bkg);
      000FA6 D5               [16] 3025 	push	de
      000FA7 21r00r00         [12] 3026 	ld	hl, #_wall2_r_bkg
      000FAA E5               [16] 3027 	push	hl
      000FAB 21 02 09         [12] 3028 	ld	hl, #0x902
      000FAE E5               [16] 3029 	push	hl
      000FAF 21 0E 03         [12] 3030 	ld	hl, #0x30e
      000FB2 E5               [16] 3031 	push	hl
      000FB3 CDr00r00         [24] 3032 	call	_set_bkg_tiles
      000FB6 E8 06            [16] 3033 	add	sp, #6
      000FB8 D1               [12] 3034 	pop	de
      000FB9 18 49            [12] 3035 	jr	00125$
      000FBB                       3036 00124$:
                                   3037 ;src/dng_crawling.c:633: w = return_value(dng,dungeon_width,dungeon_hieght,player_x-1, player_y+2);
      000FBB C5               [16] 3038 	push	bc
      000FBC D5               [16] 3039 	push	de
      000FBD F8 04            [12] 3040 	ldhl	sp,	#4
      000FBF 7E               [ 8] 3041 	ld	a, (hl)
      000FC0 F5               [16] 3042 	push	af
      000FC1 33               [ 8] 3043 	inc	sp
      000FC2 C5               [16] 3044 	push	bc
      000FC3 33               [ 8] 3045 	inc	sp
      000FC4 F8 0A            [12] 3046 	ldhl	sp,	#10
      000FC6 7E               [ 8] 3047 	ld	a, (hl)
      000FC7 F5               [16] 3048 	push	af
      000FC8 33               [ 8] 3049 	inc	sp
      000FC9 F8 08            [12] 3050 	ldhl	sp,	#8
      000FCB 7E               [ 8] 3051 	ld	a, (hl)
      000FCC CDr00r00         [24] 3052 	call	_return_value
      000FCF D1               [12] 3053 	pop	de
      000FD0 C1               [12] 3054 	pop	bc
                                   3055 ;src/dng_crawling.c:634: if(w != 0x00 && w != 0x01){
      000FD1 B7               [ 4] 3056 	or	a, a
      000FD2 28 30            [12] 3057 	jr	Z, 00125$
      000FD4 FE 01            [ 8] 3058 	cp	a, #0x01
      000FD6 28 2C            [12] 3059 	jr	Z, 00125$
                                   3060 ;src/dng_crawling.c:635: if( w == 0x05){
      000FD8 D6 05            [ 8] 3061 	sub	a, #0x05
      000FDA 20 15            [12] 3062 	jr	NZ, 00118$
                                   3063 ;src/dng_crawling.c:636: set_bkg_tiles(14,3,5,9,nowall_door2_r_bkg);
      000FDC D5               [16] 3064 	push	de
      000FDD 21r00r00         [12] 3065 	ld	hl, #_nowall_door2_r_bkg
      000FE0 E5               [16] 3066 	push	hl
      000FE1 21 05 09         [12] 3067 	ld	hl, #0x905
      000FE4 E5               [16] 3068 	push	hl
      000FE5 21 0E 03         [12] 3069 	ld	hl, #0x30e
      000FE8 E5               [16] 3070 	push	hl
      000FE9 CDr00r00         [24] 3071 	call	_set_bkg_tiles
      000FEC E8 06            [16] 3072 	add	sp, #6
      000FEE D1               [12] 3073 	pop	de
      000FEF 18 13            [12] 3074 	jr	00125$
      000FF1                       3075 00118$:
                                   3076 ;src/dng_crawling.c:638: set_bkg_tiles(14,3,5,9,nowall2_r_bkg);
      000FF1 D5               [16] 3077 	push	de
      000FF2 21r00r00         [12] 3078 	ld	hl, #_nowall2_r_bkg
      000FF5 E5               [16] 3079 	push	hl
      000FF6 21 05 09         [12] 3080 	ld	hl, #0x905
      000FF9 E5               [16] 3081 	push	hl
      000FFA 21 0E 03         [12] 3082 	ld	hl, #0x30e
      000FFD E5               [16] 3083 	push	hl
      000FFE CDr00r00         [24] 3084 	call	_set_bkg_tiles
      001001 E8 06            [16] 3085 	add	sp, #6
      001003 D1               [12] 3086 	pop	de
      001004                       3087 00125$:
                                   3088 ;src/dng_crawling.c:643: w = return_value(dng,dungeon_width,dungeon_hieght,player_x-1, player_y);
      001004 C5               [16] 3089 	push	bc
      001005 D5               [16] 3090 	push	de
      001006 F8 0A            [12] 3091 	ldhl	sp,	#10
      001008 3A               [ 8] 3092 	ld	a, (hl-)
      001009 2B               [ 8] 3093 	dec	hl
      00100A F5               [16] 3094 	push	af
      00100B 33               [ 8] 3095 	inc	sp
      00100C 4E               [ 8] 3096 	ld	c, (hl)
      00100D C5               [16] 3097 	push	bc
      00100E F8 08            [12] 3098 	ldhl	sp,	#8
      001010 7E               [ 8] 3099 	ld	a, (hl)
      001011 CDr00r00         [24] 3100 	call	_return_value
      001014 D1               [12] 3101 	pop	de
      001015 C1               [12] 3102 	pop	bc
                                   3103 ;src/dng_crawling.c:644: if(w!=0x00 && w != 0x01){
      001016 B7               [ 4] 3104 	or	a, a
      001017 28 36            [12] 3105 	jr	Z, 00137$
      001019 FE 01            [ 8] 3106 	cp	a, #0x01
      00101B 28 32            [12] 3107 	jr	Z, 00137$
                                   3108 ;src/dng_crawling.c:645: if( w == 0x06){
      00101D D6 06            [ 8] 3109 	sub	a, #0x06
      00101F 20 17            [12] 3110 	jr	NZ, 00128$
                                   3111 ;src/dng_crawling.c:646: set_bkg_tiles(16,3,3,9,door1_r_bkg);
      001021 11r00r00         [12] 3112 	ld	de, #_door1_r_bkg
      001024 D5               [16] 3113 	push	de
      001025 21 03 09         [12] 3114 	ld	hl, #0x903
      001028 E5               [16] 3115 	push	hl
      001029 3E 03            [ 8] 3116 	ld	a, #0x03
      00102B F5               [16] 3117 	push	af
      00102C 33               [ 8] 3118 	inc	sp
      00102D 3E 10            [ 8] 3119 	ld	a, #0x10
      00102F F5               [16] 3120 	push	af
      001030 33               [ 8] 3121 	inc	sp
      001031 CDr00r00         [24] 3122 	call	_set_bkg_tiles
      001034 E8 06            [16] 3123 	add	sp, #6
      001036 18 5E            [12] 3124 	jr	00140$
      001038                       3125 00128$:
                                   3126 ;src/dng_crawling.c:648: set_bkg_tiles(16,3,3,9,wall1_r_bkg);
      001038 11r00r00         [12] 3127 	ld	de, #_wall1_r_bkg
      00103B D5               [16] 3128 	push	de
      00103C 21 03 09         [12] 3129 	ld	hl, #0x903
      00103F E5               [16] 3130 	push	hl
      001040 3E 03            [ 8] 3131 	ld	a, #0x03
      001042 F5               [16] 3132 	push	af
      001043 33               [ 8] 3133 	inc	sp
      001044 3E 10            [ 8] 3134 	ld	a, #0x10
      001046 F5               [16] 3135 	push	af
      001047 33               [ 8] 3136 	inc	sp
      001048 CDr00r00         [24] 3137 	call	_set_bkg_tiles
      00104B E8 06            [16] 3138 	add	sp, #6
      00104D 18 47            [12] 3139 	jr	00140$
      00104F                       3140 00137$:
                                   3141 ;src/dng_crawling.c:651: w = return_value(dng,dungeon_width,dungeon_hieght,player_x-1, player_y+1);
      00104F 79               [ 4] 3142 	ld	a, c
      001050 F5               [16] 3143 	push	af
      001051 33               [ 8] 3144 	inc	sp
      001052 C5               [16] 3145 	push	bc
      001053 33               [ 8] 3146 	inc	sp
      001054 F8 06            [12] 3147 	ldhl	sp,	#6
      001056 7E               [ 8] 3148 	ld	a, (hl)
      001057 F5               [16] 3149 	push	af
      001058 33               [ 8] 3150 	inc	sp
      001059 F8 04            [12] 3151 	ldhl	sp,	#4
      00105B 7E               [ 8] 3152 	ld	a, (hl)
      00105C CDr00r00         [24] 3153 	call	_return_value
                                   3154 ;src/dng_crawling.c:652: if(w != 0x00 && w != 0x01){
      00105F B7               [ 4] 3155 	or	a, a
      001060 28 34            [12] 3156 	jr	Z, 00140$
      001062 FE 01            [ 8] 3157 	cp	a, #0x01
      001064 28 30            [12] 3158 	jr	Z, 00140$
                                   3159 ;src/dng_crawling.c:653: if( w == 0x05){
      001066 D6 05            [ 8] 3160 	sub	a, #0x05
      001068 20 17            [12] 3161 	jr	NZ, 00131$
                                   3162 ;src/dng_crawling.c:654: set_bkg_tiles(16,3,3,9,nowall_door1_r_bkg);
      00106A 11r00r00         [12] 3163 	ld	de, #_nowall_door1_r_bkg
      00106D D5               [16] 3164 	push	de
      00106E 21 03 09         [12] 3165 	ld	hl, #0x903
      001071 E5               [16] 3166 	push	hl
      001072 3E 03            [ 8] 3167 	ld	a, #0x03
      001074 F5               [16] 3168 	push	af
      001075 33               [ 8] 3169 	inc	sp
      001076 3E 10            [ 8] 3170 	ld	a, #0x10
      001078 F5               [16] 3171 	push	af
      001079 33               [ 8] 3172 	inc	sp
      00107A CDr00r00         [24] 3173 	call	_set_bkg_tiles
      00107D E8 06            [16] 3174 	add	sp, #6
      00107F 18 15            [12] 3175 	jr	00140$
      001081                       3176 00131$:
                                   3177 ;src/dng_crawling.c:656: set_bkg_tiles(16,3,3,9,nowall1_r_bkg);
      001081 11r00r00         [12] 3178 	ld	de, #_nowall1_r_bkg
      001084 D5               [16] 3179 	push	de
      001085 21 03 09         [12] 3180 	ld	hl, #0x903
      001088 E5               [16] 3181 	push	hl
      001089 3E 03            [ 8] 3182 	ld	a, #0x03
      00108B F5               [16] 3183 	push	af
      00108C 33               [ 8] 3184 	inc	sp
      00108D 3E 10            [ 8] 3185 	ld	a, #0x10
      00108F F5               [16] 3186 	push	af
      001090 33               [ 8] 3187 	inc	sp
      001091 CDr00r00         [24] 3188 	call	_set_bkg_tiles
      001094 E8 06            [16] 3189 	add	sp, #6
      001096                       3190 00140$:
                                   3191 ;src/dng_crawling.c:660: }
      001096 33               [ 8] 3192 	inc	sp
      001097 33               [ 8] 3193 	inc	sp
      001098 E1               [12] 3194 	pop	hl
      001099 E8 03            [16] 3195 	add	sp, #3
      00109B E9               [ 4] 3196 	jp	(hl)
                                   3197 ;src/dng_crawling.c:662: void check_r_walls_w(unsigned char* dng, uint8_t dungeon_width, uint8_t dungeon_hieght, uint8_t player_x, uint8_t player_y){
                                   3198 ;	---------------------------------
                                   3199 ; Function check_r_walls_w
                                   3200 ; ---------------------------------
      00109C                       3201 _check_r_walls_w::
      00109C 3B               [ 8] 3202 	dec	sp
      00109D 3B               [ 8] 3203 	dec	sp
      00109E F8 01            [12] 3204 	ldhl	sp,	#1
      0010A0 77               [ 8] 3205 	ld	(hl), a
                                   3206 ;src/dng_crawling.c:663: unsigned char w = return_value(dng,dungeon_width,dungeon_hieght,player_x-2, player_y-1);
      0010A1 F8 06            [12] 3207 	ldhl	sp,	#6
      0010A3 3A               [ 8] 3208 	ld	a, (hl-)
      0010A4 47               [ 4] 3209 	ld	b, a
      0010A5 05               [ 4] 3210 	dec	b
      0010A6 4E               [ 8] 3211 	ld	c, (hl)
      0010A7 79               [ 4] 3212 	ld	a, c
      0010A8 C6 FE            [ 8] 3213 	add	a, #0xfe
      0010AA F8 00            [12] 3214 	ldhl	sp,	#0
      0010AC 77               [ 8] 3215 	ld	(hl), a
      0010AD C5               [16] 3216 	push	bc
      0010AE D5               [16] 3217 	push	de
      0010AF 4E               [ 8] 3218 	ld	c, (hl)
      0010B0 C5               [16] 3219 	push	bc
      0010B1 F8 0A            [12] 3220 	ldhl	sp,	#10
      0010B3 7E               [ 8] 3221 	ld	a, (hl)
      0010B4 F5               [16] 3222 	push	af
      0010B5 33               [ 8] 3223 	inc	sp
      0010B6 F8 08            [12] 3224 	ldhl	sp,	#8
      0010B8 7E               [ 8] 3225 	ld	a, (hl)
      0010B9 CDr00r00         [24] 3226 	call	_return_value
      0010BC D1               [12] 3227 	pop	de
      0010BD C1               [12] 3228 	pop	bc
                                   3229 ;src/dng_crawling.c:664: if(w != 0x00 && w != 0x01){
      0010BE B7               [ 4] 3230 	or	a, a
      0010BF 28 32            [12] 3231 	jr	Z, 00111$
      0010C1 FE 01            [ 8] 3232 	cp	a, #0x01
      0010C3 28 2E            [12] 3233 	jr	Z, 00111$
                                   3234 ;src/dng_crawling.c:665: if( w == 0x03){
      0010C5 D6 03            [ 8] 3235 	sub	a, #0x03
      0010C7 20 15            [12] 3236 	jr	NZ, 00102$
                                   3237 ;src/dng_crawling.c:666: set_bkg_tiles(13,3,1,9,door3_r_bkg);
      0010C9 D5               [16] 3238 	push	de
      0010CA 21r00r00         [12] 3239 	ld	hl, #_door3_r_bkg
      0010CD E5               [16] 3240 	push	hl
      0010CE 21 01 09         [12] 3241 	ld	hl, #0x901
      0010D1 E5               [16] 3242 	push	hl
      0010D2 21 0D 03         [12] 3243 	ld	hl, #0x30d
      0010D5 E5               [16] 3244 	push	hl
      0010D6 CDr00r00         [24] 3245 	call	_set_bkg_tiles
      0010D9 E8 06            [16] 3246 	add	sp, #6
      0010DB D1               [12] 3247 	pop	de
      0010DC 18 5E            [12] 3248 	jr	00112$
      0010DE                       3249 00102$:
                                   3250 ;src/dng_crawling.c:668: set_bkg_tiles(13,3,1,9,wall3_r_bkg);
      0010DE D5               [16] 3251 	push	de
      0010DF 21r00r00         [12] 3252 	ld	hl, #_wall3_r_bkg
      0010E2 E5               [16] 3253 	push	hl
      0010E3 21 01 09         [12] 3254 	ld	hl, #0x901
      0010E6 E5               [16] 3255 	push	hl
      0010E7 21 0D 03         [12] 3256 	ld	hl, #0x30d
      0010EA E5               [16] 3257 	push	hl
      0010EB CDr00r00         [24] 3258 	call	_set_bkg_tiles
      0010EE E8 06            [16] 3259 	add	sp, #6
      0010F0 D1               [12] 3260 	pop	de
      0010F1 18 49            [12] 3261 	jr	00112$
      0010F3                       3262 00111$:
                                   3263 ;src/dng_crawling.c:671: w = return_value(dng,dungeon_width,dungeon_hieght,player_x-3, player_y-1);
      0010F3 79               [ 4] 3264 	ld	a, c
      0010F4 C6 FD            [ 8] 3265 	add	a, #0xfd
      0010F6 C5               [16] 3266 	push	bc
      0010F7 D5               [16] 3267 	push	de
      0010F8 C5               [16] 3268 	push	bc
      0010F9 33               [ 8] 3269 	inc	sp
      0010FA F5               [16] 3270 	push	af
      0010FB 33               [ 8] 3271 	inc	sp
      0010FC F8 0A            [12] 3272 	ldhl	sp,	#10
      0010FE 7E               [ 8] 3273 	ld	a, (hl)
      0010FF F5               [16] 3274 	push	af
      001100 33               [ 8] 3275 	inc	sp
      001101 F8 08            [12] 3276 	ldhl	sp,	#8
      001103 7E               [ 8] 3277 	ld	a, (hl)
      001104 CDr00r00         [24] 3278 	call	_return_value
      001107 D1               [12] 3279 	pop	de
      001108 C1               [12] 3280 	pop	bc
                                   3281 ;src/dng_crawling.c:672: if(w != 0x00 && w != 0x01){
      001109 B7               [ 4] 3282 	or	a, a
      00110A 28 30            [12] 3283 	jr	Z, 00112$
      00110C FE 01            [ 8] 3284 	cp	a, #0x01
      00110E 28 2C            [12] 3285 	jr	Z, 00112$
                                   3286 ;src/dng_crawling.c:673: if( w == 0x06){
      001110 D6 06            [ 8] 3287 	sub	a, #0x06
      001112 20 15            [12] 3288 	jr	NZ, 00105$
                                   3289 ;src/dng_crawling.c:674: set_bkg_tiles(13,3,6,9,nowall_door3_r_bkg);
      001114 D5               [16] 3290 	push	de
      001115 21r00r00         [12] 3291 	ld	hl, #_nowall_door3_r_bkg
      001118 E5               [16] 3292 	push	hl
      001119 21 06 09         [12] 3293 	ld	hl, #0x906
      00111C E5               [16] 3294 	push	hl
      00111D 21 0D 03         [12] 3295 	ld	hl, #0x30d
      001120 E5               [16] 3296 	push	hl
      001121 CDr00r00         [24] 3297 	call	_set_bkg_tiles
      001124 E8 06            [16] 3298 	add	sp, #6
      001126 D1               [12] 3299 	pop	de
      001127 18 13            [12] 3300 	jr	00112$
      001129                       3301 00105$:
                                   3302 ;src/dng_crawling.c:676: set_bkg_tiles(13,3,6,9,nowall3_r_bkg);
      001129 D5               [16] 3303 	push	de
      00112A 21r00r00         [12] 3304 	ld	hl, #_nowall3_r_bkg
      00112D E5               [16] 3305 	push	hl
      00112E 21 06 09         [12] 3306 	ld	hl, #0x906
      001131 E5               [16] 3307 	push	hl
      001132 21 0D 03         [12] 3308 	ld	hl, #0x30d
      001135 E5               [16] 3309 	push	hl
      001136 CDr00r00         [24] 3310 	call	_set_bkg_tiles
      001139 E8 06            [16] 3311 	add	sp, #6
      00113B D1               [12] 3312 	pop	de
      00113C                       3313 00112$:
                                   3314 ;src/dng_crawling.c:680: w = return_value(dng,dungeon_width,dungeon_hieght,player_x-1, player_y-1);
      00113C 0D               [ 4] 3315 	dec	c
      00113D C5               [16] 3316 	push	bc
      00113E D5               [16] 3317 	push	de
      00113F C5               [16] 3318 	push	bc
      001140 F8 0A            [12] 3319 	ldhl	sp,	#10
      001142 7E               [ 8] 3320 	ld	a, (hl)
      001143 F5               [16] 3321 	push	af
      001144 33               [ 8] 3322 	inc	sp
      001145 F8 08            [12] 3323 	ldhl	sp,	#8
      001147 7E               [ 8] 3324 	ld	a, (hl)
      001148 CDr00r00         [24] 3325 	call	_return_value
      00114B D1               [12] 3326 	pop	de
      00114C C1               [12] 3327 	pop	bc
                                   3328 ;src/dng_crawling.c:681: if(w != 0x00 && w != 0x01){
      00114D B7               [ 4] 3329 	or	a, a
      00114E 28 32            [12] 3330 	jr	Z, 00124$
      001150 FE 01            [ 8] 3331 	cp	a, #0x01
      001152 28 2E            [12] 3332 	jr	Z, 00124$
                                   3333 ;src/dng_crawling.c:682: if( w == 0x03){
      001154 D6 03            [ 8] 3334 	sub	a, #0x03
      001156 20 15            [12] 3335 	jr	NZ, 00115$
                                   3336 ;src/dng_crawling.c:683: set_bkg_tiles(14,3,2,9,door2_r_bkg);
      001158 D5               [16] 3337 	push	de
      001159 21r00r00         [12] 3338 	ld	hl, #_door2_r_bkg
      00115C E5               [16] 3339 	push	hl
      00115D 21 02 09         [12] 3340 	ld	hl, #0x902
      001160 E5               [16] 3341 	push	hl
      001161 21 0E 03         [12] 3342 	ld	hl, #0x30e
      001164 E5               [16] 3343 	push	hl
      001165 CDr00r00         [24] 3344 	call	_set_bkg_tiles
      001168 E8 06            [16] 3345 	add	sp, #6
      00116A D1               [12] 3346 	pop	de
      00116B 18 5E            [12] 3347 	jr	00125$
      00116D                       3348 00115$:
                                   3349 ;src/dng_crawling.c:685: set_bkg_tiles(14,3,2,9,wall2_r_bkg);
      00116D D5               [16] 3350 	push	de
      00116E 21r00r00         [12] 3351 	ld	hl, #_wall2_r_bkg
      001171 E5               [16] 3352 	push	hl
      001172 21 02 09         [12] 3353 	ld	hl, #0x902
      001175 E5               [16] 3354 	push	hl
      001176 21 0E 03         [12] 3355 	ld	hl, #0x30e
      001179 E5               [16] 3356 	push	hl
      00117A CDr00r00         [24] 3357 	call	_set_bkg_tiles
      00117D E8 06            [16] 3358 	add	sp, #6
      00117F D1               [12] 3359 	pop	de
      001180 18 49            [12] 3360 	jr	00125$
      001182                       3361 00124$:
                                   3362 ;src/dng_crawling.c:688: w = return_value(dng,dungeon_width,dungeon_hieght,player_x-2, player_y-1);
      001182 C5               [16] 3363 	push	bc
      001183 D5               [16] 3364 	push	de
      001184 C5               [16] 3365 	push	bc
      001185 33               [ 8] 3366 	inc	sp
      001186 F8 05            [12] 3367 	ldhl	sp,	#5
      001188 7E               [ 8] 3368 	ld	a, (hl)
      001189 F5               [16] 3369 	push	af
      00118A 33               [ 8] 3370 	inc	sp
      00118B F8 0A            [12] 3371 	ldhl	sp,	#10
      00118D 7E               [ 8] 3372 	ld	a, (hl)
      00118E F5               [16] 3373 	push	af
      00118F 33               [ 8] 3374 	inc	sp
      001190 F8 08            [12] 3375 	ldhl	sp,	#8
      001192 7E               [ 8] 3376 	ld	a, (hl)
      001193 CDr00r00         [24] 3377 	call	_return_value
      001196 D1               [12] 3378 	pop	de
      001197 C1               [12] 3379 	pop	bc
                                   3380 ;src/dng_crawling.c:689: if(w != 0x00 && w != 0x01){
      001198 B7               [ 4] 3381 	or	a, a
      001199 28 30            [12] 3382 	jr	Z, 00125$
      00119B FE 01            [ 8] 3383 	cp	a, #0x01
      00119D 28 2C            [12] 3384 	jr	Z, 00125$
                                   3385 ;src/dng_crawling.c:690: if( w == 0x06){
      00119F D6 06            [ 8] 3386 	sub	a, #0x06
      0011A1 20 15            [12] 3387 	jr	NZ, 00118$
                                   3388 ;src/dng_crawling.c:691: set_bkg_tiles(14,3,5,9,nowall_door2_r_bkg);
      0011A3 D5               [16] 3389 	push	de
      0011A4 21r00r00         [12] 3390 	ld	hl, #_nowall_door2_r_bkg
      0011A7 E5               [16] 3391 	push	hl
      0011A8 21 05 09         [12] 3392 	ld	hl, #0x905
      0011AB E5               [16] 3393 	push	hl
      0011AC 21 0E 03         [12] 3394 	ld	hl, #0x30e
      0011AF E5               [16] 3395 	push	hl
      0011B0 CDr00r00         [24] 3396 	call	_set_bkg_tiles
      0011B3 E8 06            [16] 3397 	add	sp, #6
      0011B5 D1               [12] 3398 	pop	de
      0011B6 18 13            [12] 3399 	jr	00125$
      0011B8                       3400 00118$:
                                   3401 ;src/dng_crawling.c:693: set_bkg_tiles(14,3,5,9,nowall2_r_bkg);
      0011B8 D5               [16] 3402 	push	de
      0011B9 21r00r00         [12] 3403 	ld	hl, #_nowall2_r_bkg
      0011BC E5               [16] 3404 	push	hl
      0011BD 21 05 09         [12] 3405 	ld	hl, #0x905
      0011C0 E5               [16] 3406 	push	hl
      0011C1 21 0E 03         [12] 3407 	ld	hl, #0x30e
      0011C4 E5               [16] 3408 	push	hl
      0011C5 CDr00r00         [24] 3409 	call	_set_bkg_tiles
      0011C8 E8 06            [16] 3410 	add	sp, #6
      0011CA D1               [12] 3411 	pop	de
      0011CB                       3412 00125$:
                                   3413 ;src/dng_crawling.c:698: w = return_value(dng,dungeon_width,dungeon_hieght,player_x, player_y-1);
      0011CB C5               [16] 3414 	push	bc
      0011CC D5               [16] 3415 	push	de
      0011CD C5               [16] 3416 	push	bc
      0011CE 33               [ 8] 3417 	inc	sp
      0011CF F8 0A            [12] 3418 	ldhl	sp,	#10
      0011D1 3A               [ 8] 3419 	ld	a, (hl-)
      0011D2 47               [ 4] 3420 	ld	b, a
      0011D3 4E               [ 8] 3421 	ld	c, (hl)
      0011D4 C5               [16] 3422 	push	bc
      0011D5 F8 08            [12] 3423 	ldhl	sp,	#8
      0011D7 7E               [ 8] 3424 	ld	a, (hl)
      0011D8 CDr00r00         [24] 3425 	call	_return_value
      0011DB D1               [12] 3426 	pop	de
      0011DC C1               [12] 3427 	pop	bc
                                   3428 ;src/dng_crawling.c:699: if(w!=0x00 && w != 0x01){
      0011DD B7               [ 4] 3429 	or	a, a
      0011DE 28 36            [12] 3430 	jr	Z, 00137$
      0011E0 FE 01            [ 8] 3431 	cp	a, #0x01
      0011E2 28 32            [12] 3432 	jr	Z, 00137$
                                   3433 ;src/dng_crawling.c:700: if( w == 0x03){
      0011E4 D6 03            [ 8] 3434 	sub	a, #0x03
      0011E6 20 17            [12] 3435 	jr	NZ, 00128$
                                   3436 ;src/dng_crawling.c:701: set_bkg_tiles(16,3,3,9,door1_r_bkg);
      0011E8 11r00r00         [12] 3437 	ld	de, #_door1_r_bkg
      0011EB D5               [16] 3438 	push	de
      0011EC 21 03 09         [12] 3439 	ld	hl, #0x903
      0011EF E5               [16] 3440 	push	hl
      0011F0 3E 03            [ 8] 3441 	ld	a, #0x03
      0011F2 F5               [16] 3442 	push	af
      0011F3 33               [ 8] 3443 	inc	sp
      0011F4 3E 10            [ 8] 3444 	ld	a, #0x10
      0011F6 F5               [16] 3445 	push	af
      0011F7 33               [ 8] 3446 	inc	sp
      0011F8 CDr00r00         [24] 3447 	call	_set_bkg_tiles
      0011FB E8 06            [16] 3448 	add	sp, #6
      0011FD 18 5A            [12] 3449 	jr	00140$
      0011FF                       3450 00128$:
                                   3451 ;src/dng_crawling.c:703: set_bkg_tiles(16,3,3,9,wall1_r_bkg);
      0011FF 11r00r00         [12] 3452 	ld	de, #_wall1_r_bkg
      001202 D5               [16] 3453 	push	de
      001203 21 03 09         [12] 3454 	ld	hl, #0x903
      001206 E5               [16] 3455 	push	hl
      001207 3E 03            [ 8] 3456 	ld	a, #0x03
      001209 F5               [16] 3457 	push	af
      00120A 33               [ 8] 3458 	inc	sp
      00120B 3E 10            [ 8] 3459 	ld	a, #0x10
      00120D F5               [16] 3460 	push	af
      00120E 33               [ 8] 3461 	inc	sp
      00120F CDr00r00         [24] 3462 	call	_set_bkg_tiles
      001212 E8 06            [16] 3463 	add	sp, #6
      001214 18 43            [12] 3464 	jr	00140$
      001216                       3465 00137$:
                                   3466 ;src/dng_crawling.c:706: w = return_value(dng,dungeon_width,dungeon_hieght,player_x-1, player_y-1);
      001216 C5               [16] 3467 	push	bc
      001217 F8 06            [12] 3468 	ldhl	sp,	#6
      001219 7E               [ 8] 3469 	ld	a, (hl)
      00121A F5               [16] 3470 	push	af
      00121B 33               [ 8] 3471 	inc	sp
      00121C F8 04            [12] 3472 	ldhl	sp,	#4
      00121E 7E               [ 8] 3473 	ld	a, (hl)
      00121F CDr00r00         [24] 3474 	call	_return_value
                                   3475 ;src/dng_crawling.c:707: if(w != 0x00 && w != 0x01){
      001222 B7               [ 4] 3476 	or	a, a
      001223 28 34            [12] 3477 	jr	Z, 00140$
      001225 FE 01            [ 8] 3478 	cp	a, #0x01
      001227 28 30            [12] 3479 	jr	Z, 00140$
                                   3480 ;src/dng_crawling.c:708: if( w == 0x06){
      001229 D6 06            [ 8] 3481 	sub	a, #0x06
      00122B 20 17            [12] 3482 	jr	NZ, 00131$
                                   3483 ;src/dng_crawling.c:709: set_bkg_tiles(16,3,3,9,nowall_door1_r_bkg);
      00122D 11r00r00         [12] 3484 	ld	de, #_nowall_door1_r_bkg
      001230 D5               [16] 3485 	push	de
      001231 21 03 09         [12] 3486 	ld	hl, #0x903
      001234 E5               [16] 3487 	push	hl
      001235 3E 03            [ 8] 3488 	ld	a, #0x03
      001237 F5               [16] 3489 	push	af
      001238 33               [ 8] 3490 	inc	sp
      001239 3E 10            [ 8] 3491 	ld	a, #0x10
      00123B F5               [16] 3492 	push	af
      00123C 33               [ 8] 3493 	inc	sp
      00123D CDr00r00         [24] 3494 	call	_set_bkg_tiles
      001240 E8 06            [16] 3495 	add	sp, #6
      001242 18 15            [12] 3496 	jr	00140$
      001244                       3497 00131$:
                                   3498 ;src/dng_crawling.c:711: set_bkg_tiles(16,3,3,9,nowall1_r_bkg);
      001244 11r00r00         [12] 3499 	ld	de, #_nowall1_r_bkg
      001247 D5               [16] 3500 	push	de
      001248 21 03 09         [12] 3501 	ld	hl, #0x903
      00124B E5               [16] 3502 	push	hl
      00124C 3E 03            [ 8] 3503 	ld	a, #0x03
      00124E F5               [16] 3504 	push	af
      00124F 33               [ 8] 3505 	inc	sp
      001250 3E 10            [ 8] 3506 	ld	a, #0x10
      001252 F5               [16] 3507 	push	af
      001253 33               [ 8] 3508 	inc	sp
      001254 CDr00r00         [24] 3509 	call	_set_bkg_tiles
      001257 E8 06            [16] 3510 	add	sp, #6
      001259                       3511 00140$:
                                   3512 ;src/dng_crawling.c:715: }
      001259 33               [ 8] 3513 	inc	sp
      00125A 33               [ 8] 3514 	inc	sp
      00125B E1               [12] 3515 	pop	hl
      00125C E8 03            [16] 3516 	add	sp, #3
      00125E E9               [ 4] 3517 	jp	(hl)
                                   3518 	.area _CODE
                                   3519 	.area _INITIALIZER
                                   3520 	.area _CABS (ABS)
