                                      1 ;--------------------------------------------------------
                                      2 ; File Created by SDCC : free open source ISO C Compiler 
                                      3 ; Version 4.2.2 #13350 (Linux)
                                      4 ;--------------------------------------------------------
                                      5 	.module main
                                      6 	.optsdcc -msm83
                                      7 	
                                      8 ;--------------------------------------------------------
                                      9 ; Public variables in this module
                                     10 ;--------------------------------------------------------
                                     11 	.globl _main
                                     12 	.globl _dungeon_logic_upd
                                     13 	.globl _update_dng_UI
                                     14 	.globl _init_dng_UI
                                     15 	.globl _collision_check
                                     16 	.globl _update_dng
                                     17 	.globl _init_dungeon
                                     18 	.globl _return_letter
                                     19 	.globl _check_r_walls
                                     20 	.globl _check_l_walls
                                     21 	.globl _check_m_walls
                                     22 	.globl _return_value
                                     23 	.globl _set_sprite_data
                                     24 	.globl _set_bkg_tiles
                                     25 	.globl _set_bkg_data
                                     26 	.globl _wait_vbl_done
                                     27 	.globl _joypad
                                     28 	.globl _test_dungeon
                                     29 	.globl _white_screen
                                     30 ;--------------------------------------------------------
                                     31 ; special function registers
                                     32 ;--------------------------------------------------------
                                     33 ;--------------------------------------------------------
                                     34 ; ram data
                                     35 ;--------------------------------------------------------
                                     36 	.area _DATA
                                     37 ;--------------------------------------------------------
                                     38 ; ram data
                                     39 ;--------------------------------------------------------
                                     40 	.area _INITIALIZED
      000000                         41 _player_x:
      000000                         42 	.ds 1
      000001                         43 _player_y:
      000001                         44 	.ds 1
      000002                         45 _global_state:
      000002                         46 	.ds 1
      000003                         47 _inventory:
      000003                         48 	.ds 200
      0000CB                         49 _player_dir:
      0000CB                         50 	.ds 1
      0000CC                         51 _joypad_current:
      0000CC                         52 	.ds 1
      0000CD                         53 _joypad_previous:
      0000CD                         54 	.ds 1
                                     55 ;--------------------------------------------------------
                                     56 ; absolute external ram data
                                     57 ;--------------------------------------------------------
                                     58 	.area _DABS (ABS)
                                     59 ;--------------------------------------------------------
                                     60 ; global & static initialisations
                                     61 ;--------------------------------------------------------
                                     62 	.area _HOME
                                     63 	.area _GSINIT
                                     64 	.area _GSFINAL
                                     65 	.area _GSINIT
                                     66 ;--------------------------------------------------------
                                     67 ; Home
                                     68 ;--------------------------------------------------------
                                     69 	.area _HOME
                                     70 	.area _HOME
                                     71 ;--------------------------------------------------------
                                     72 ; code
                                     73 ;--------------------------------------------------------
                                     74 	.area _CODE
                                     75 ;src/main.c:58: void init_dungeon(const unsigned char *dng,uint8_t dng_width, uint8_t dng_height) {
                                     76 ;	---------------------------------
                                     77 ; Function init_dungeon
                                     78 ; ---------------------------------
      000000                         79 _init_dungeon::
      000000 E8 FB            [16]   80 	add	sp, #-5
      000002 F8 03            [12]   81 	ldhl	sp,	#3
      000004 73               [ 8]   82 	ld	(hl), e
      000005 23               [ 8]   83 	inc	hl
      000006 72               [ 8]   84 	ld	(hl), d
      000007 2B               [ 8]   85 	dec	hl
      000008 2B               [ 8]   86 	dec	hl
      000009 77               [ 8]   87 	ld	(hl), a
                                     88 ;src/main.c:61: set_bkg_data(0,75,dng_tileset);
      00000A 11r00r00         [12]   89 	ld	de, #_dng_tileset
      00000D D5               [16]   90 	push	de
      00000E 21 00 4B         [12]   91 	ld	hl, #0x4b00
      000011 E5               [16]   92 	push	hl
      000012 CDr00r00         [24]   93 	call	_set_bkg_data
      000015 E8 04            [16]   94 	add	sp, #4
                                     95 ;src/main.c:62: set_sprite_data(0,25,UI_tiles);
      000017 11r00r00         [12]   96 	ld	de, #_UI_tiles
      00001A D5               [16]   97 	push	de
      00001B 21 00 19         [12]   98 	ld	hl, #0x1900
      00001E E5               [16]   99 	push	hl
      00001F CDr00r00         [24]  100 	call	_set_sprite_data
      000022 E8 04            [16]  101 	add	sp, #4
                                    102 ;src/main.c:64: for(uint8_t i = 0; i < dng_width; i++){
      000024 06 00            [ 8]  103 	ld	b, #0x00
      000026                        104 00109$:
      000026 78               [ 4]  105 	ld	a, b
      000027 F8 02            [12]  106 	ldhl	sp,	#2
      000029 96               [ 8]  107 	sub	a, (hl)
      00002A 30 36            [12]  108 	jr	NC, 00104$
                                    109 ;src/main.c:65: for(uint8_t j = 0; j < dng_height; j++){
      00002C C5               [16]  110 	push	bc
      00002D 5E               [ 8]  111 	ld	e, (hl)
      00002E 78               [ 4]  112 	ld	a, b
      00002F CDr00r00         [24]  113 	call	__muluchar
      000032 F8 02            [12]  114 	ldhl	sp,	#2
      000034 79               [ 4]  115 	ld	a, c
      000035 22               [ 8]  116 	ld	(hl+), a
      000036 70               [ 8]  117 	ld	(hl), b
      000037 C1               [12]  118 	pop	bc
      000038 0E 00            [ 8]  119 	ld	c, #0x00
      00003A                        120 00106$:
      00003A 79               [ 4]  121 	ld	a, c
      00003B F8 07            [12]  122 	ldhl	sp,	#7
      00003D 96               [ 8]  123 	sub	a, (hl)
      00003E 30 1F            [12]  124 	jr	NC, 00110$
                                    125 ;src/main.c:66: if(dng[i*dng_width+j]==0x01){
      000040 59               [ 4]  126 	ld	e, c
      000041 16 00            [ 8]  127 	ld	d, #0x00
      000043 E1               [12]  128 	pop	hl
      000044 E5               [16]  129 	push	hl
      000045 19               [ 8]  130 	add	hl, de
      000046 5D               [ 4]  131 	ld	e, l
      000047 54               [ 4]  132 	ld	d, h
      000048 F8 03            [12]  133 	ldhl	sp,	#3
      00004A 2A               [ 8]  134 	ld	a,	(hl+)
      00004B 66               [ 8]  135 	ld	h, (hl)
      00004C 6F               [ 4]  136 	ld	l, a
      00004D 19               [ 8]  137 	add	hl, de
      00004E 5D               [ 4]  138 	ld	e, l
      00004F 54               [ 4]  139 	ld	d, h
      000050 1A               [ 8]  140 	ld	a, (de)
      000051 3D               [ 4]  141 	dec	a
      000052 20 08            [12]  142 	jr	NZ, 00107$
                                    143 ;src/main.c:67: player_x = j;
      000054 21r00r00         [12]  144 	ld	hl, #_player_x
      000057 71               [ 8]  145 	ld	(hl), c
                                    146 ;src/main.c:68: player_y = i;
      000058 21r01r00         [12]  147 	ld	hl, #_player_y
      00005B 70               [ 8]  148 	ld	(hl), b
      00005C                        149 00107$:
                                    150 ;src/main.c:65: for(uint8_t j = 0; j < dng_height; j++){
      00005C 0C               [ 4]  151 	inc	c
      00005D 18 DB            [12]  152 	jr	00106$
      00005F                        153 00110$:
                                    154 ;src/main.c:64: for(uint8_t i = 0; i < dng_width; i++){
      00005F 04               [ 4]  155 	inc	b
      000060 18 C4            [12]  156 	jr	00109$
      000062                        157 00104$:
                                    158 ;src/main.c:72: SHOW_BKG;
      000062 F0r00            [12]  159 	ldh	a, (_LCDC_REG + 0)
      000064 F6 01            [ 8]  160 	or	a, #0x01
      000066 E0r00            [12]  161 	ldh	(_LCDC_REG + 0), a
                                    162 ;src/main.c:74: }
      000068 E8 05            [16]  163 	add	sp, #5
      00006A E1               [12]  164 	pop	hl
      00006B 33               [ 8]  165 	inc	sp
      00006C E9               [ 4]  166 	jp	(hl)
      00006D                        167 _white_screen:
      00006D 4A                     168 	.db #0x4a	; 74	'J'
      00006E 4A                     169 	.db #0x4a	; 74	'J'
      00006F 4A                     170 	.db #0x4a	; 74	'J'
      000070 4A                     171 	.db #0x4a	; 74	'J'
      000071 4A                     172 	.db #0x4a	; 74	'J'
      000072 4A                     173 	.db #0x4a	; 74	'J'
      000073 4A                     174 	.db #0x4a	; 74	'J'
      000074 4A                     175 	.db #0x4a	; 74	'J'
      000075 4A                     176 	.db #0x4a	; 74	'J'
      000076 4A                     177 	.db #0x4a	; 74	'J'
      000077 4A                     178 	.db #0x4a	; 74	'J'
      000078 4A                     179 	.db #0x4a	; 74	'J'
      000079 4A                     180 	.db #0x4a	; 74	'J'
      00007A 4A                     181 	.db #0x4a	; 74	'J'
      00007B 4A                     182 	.db #0x4a	; 74	'J'
      00007C 4A                     183 	.db #0x4a	; 74	'J'
      00007D 4A                     184 	.db #0x4a	; 74	'J'
      00007E 4A                     185 	.db #0x4a	; 74	'J'
      00007F 4A                     186 	.db #0x4a	; 74	'J'
      000080 4A                     187 	.db #0x4a	; 74	'J'
      000081 4A                     188 	.db #0x4a	; 74	'J'
      000082 4A                     189 	.db #0x4a	; 74	'J'
      000083 4A                     190 	.db #0x4a	; 74	'J'
      000084 4A                     191 	.db #0x4a	; 74	'J'
      000085 4A                     192 	.db #0x4a	; 74	'J'
      000086 4A                     193 	.db #0x4a	; 74	'J'
      000087 4A                     194 	.db #0x4a	; 74	'J'
      000088 4A                     195 	.db #0x4a	; 74	'J'
      000089 4A                     196 	.db #0x4a	; 74	'J'
      00008A 4A                     197 	.db #0x4a	; 74	'J'
      00008B 4A                     198 	.db #0x4a	; 74	'J'
      00008C 4A                     199 	.db #0x4a	; 74	'J'
      00008D 4A                     200 	.db #0x4a	; 74	'J'
      00008E 4A                     201 	.db #0x4a	; 74	'J'
      00008F 4A                     202 	.db #0x4a	; 74	'J'
      000090 4A                     203 	.db #0x4a	; 74	'J'
      000091 4A                     204 	.db #0x4a	; 74	'J'
      000092 4A                     205 	.db #0x4a	; 74	'J'
      000093 4A                     206 	.db #0x4a	; 74	'J'
      000094 4A                     207 	.db #0x4a	; 74	'J'
      000095 4A                     208 	.db #0x4a	; 74	'J'
      000096 4A                     209 	.db #0x4a	; 74	'J'
      000097 4A                     210 	.db #0x4a	; 74	'J'
      000098 4A                     211 	.db #0x4a	; 74	'J'
      000099 4A                     212 	.db #0x4a	; 74	'J'
      00009A 4A                     213 	.db #0x4a	; 74	'J'
      00009B 4A                     214 	.db #0x4a	; 74	'J'
      00009C 4A                     215 	.db #0x4a	; 74	'J'
      00009D 4A                     216 	.db #0x4a	; 74	'J'
      00009E 4A                     217 	.db #0x4a	; 74	'J'
      00009F 4A                     218 	.db #0x4a	; 74	'J'
      0000A0 4A                     219 	.db #0x4a	; 74	'J'
      0000A1 4A                     220 	.db #0x4a	; 74	'J'
      0000A2 4A                     221 	.db #0x4a	; 74	'J'
      0000A3 4A                     222 	.db #0x4a	; 74	'J'
      0000A4 4A                     223 	.db #0x4a	; 74	'J'
      0000A5 4A                     224 	.db #0x4a	; 74	'J'
      0000A6 4A                     225 	.db #0x4a	; 74	'J'
      0000A7 4A                     226 	.db #0x4a	; 74	'J'
      0000A8 4A                     227 	.db #0x4a	; 74	'J'
      0000A9 00                     228 	.db #0x00	; 0
      0000AA 00                     229 	.db #0x00	; 0
      0000AB 00                     230 	.db #0x00	; 0
      0000AC 00                     231 	.db #0x00	; 0
      0000AD 00                     232 	.db #0x00	; 0
      0000AE 00                     233 	.db #0x00	; 0
      0000AF 00                     234 	.db #0x00	; 0
      0000B0 00                     235 	.db #0x00	; 0
      0000B1 00                     236 	.db #0x00	; 0
      0000B2 00                     237 	.db #0x00	; 0
      0000B3 00                     238 	.db #0x00	; 0
      0000B4 00                     239 	.db #0x00	; 0
      0000B5 00                     240 	.db #0x00	; 0
      0000B6 00                     241 	.db #0x00	; 0
      0000B7 00                     242 	.db #0x00	; 0
      0000B8 00                     243 	.db #0x00	; 0
      0000B9 00                     244 	.db #0x00	; 0
      0000BA 00                     245 	.db #0x00	; 0
      0000BB 00                     246 	.db #0x00	; 0
      0000BC 00                     247 	.db #0x00	; 0
      0000BD 00                     248 	.db #0x00	; 0
      0000BE 00                     249 	.db #0x00	; 0
      0000BF 00                     250 	.db #0x00	; 0
      0000C0 00                     251 	.db #0x00	; 0
      0000C1 00                     252 	.db #0x00	; 0
      0000C2 00                     253 	.db #0x00	; 0
      0000C3 00                     254 	.db #0x00	; 0
      0000C4 00                     255 	.db #0x00	; 0
      0000C5 00                     256 	.db #0x00	; 0
      0000C6 00                     257 	.db #0x00	; 0
      0000C7 00                     258 	.db #0x00	; 0
      0000C8 00                     259 	.db #0x00	; 0
      0000C9 00                     260 	.db #0x00	; 0
      0000CA 00                     261 	.db #0x00	; 0
      0000CB 00                     262 	.db #0x00	; 0
      0000CC 00                     263 	.db #0x00	; 0
      0000CD 00                     264 	.db #0x00	; 0
      0000CE 00                     265 	.db #0x00	; 0
      0000CF 00                     266 	.db #0x00	; 0
      0000D0 00                     267 	.db #0x00	; 0
      0000D1 00                     268 	.db #0x00	; 0
      0000D2 00                     269 	.db #0x00	; 0
      0000D3 00                     270 	.db #0x00	; 0
      0000D4 00                     271 	.db #0x00	; 0
      0000D5 00                     272 	.db #0x00	; 0
      0000D6 00                     273 	.db #0x00	; 0
      0000D7 00                     274 	.db #0x00	; 0
      0000D8 00                     275 	.db #0x00	; 0
      0000D9 00                     276 	.db #0x00	; 0
      0000DA 00                     277 	.db #0x00	; 0
      0000DB 00                     278 	.db #0x00	; 0
      0000DC 00                     279 	.db #0x00	; 0
      0000DD 00                     280 	.db #0x00	; 0
      0000DE 00                     281 	.db #0x00	; 0
      0000DF 00                     282 	.db #0x00	; 0
      0000E0 00                     283 	.db #0x00	; 0
      0000E1 00                     284 	.db #0x00	; 0
      0000E2 00                     285 	.db #0x00	; 0
      0000E3 00                     286 	.db #0x00	; 0
      0000E4 00                     287 	.db #0x00	; 0
      0000E5 00                     288 	.db #0x00	; 0
      0000E6 00                     289 	.db #0x00	; 0
      0000E7 00                     290 	.db #0x00	; 0
      0000E8 00                     291 	.db #0x00	; 0
      0000E9 00                     292 	.db #0x00	; 0
      0000EA 00                     293 	.db #0x00	; 0
      0000EB 00                     294 	.db #0x00	; 0
      0000EC 00                     295 	.db #0x00	; 0
      0000ED 00                     296 	.db #0x00	; 0
      0000EE 00                     297 	.db #0x00	; 0
      0000EF 00                     298 	.db #0x00	; 0
      0000F0 00                     299 	.db #0x00	; 0
      0000F1 00                     300 	.db #0x00	; 0
      0000F2 00                     301 	.db #0x00	; 0
      0000F3 00                     302 	.db #0x00	; 0
      0000F4 00                     303 	.db #0x00	; 0
      0000F5 00                     304 	.db #0x00	; 0
      0000F6 00                     305 	.db #0x00	; 0
      0000F7 00                     306 	.db #0x00	; 0
      0000F8 00                     307 	.db #0x00	; 0
      0000F9 00                     308 	.db #0x00	; 0
      0000FA 00                     309 	.db #0x00	; 0
      0000FB 00                     310 	.db #0x00	; 0
      0000FC 00                     311 	.db #0x00	; 0
      0000FD 00                     312 	.db #0x00	; 0
      0000FE 00                     313 	.db #0x00	; 0
      0000FF 00                     314 	.db #0x00	; 0
      000100 00                     315 	.db #0x00	; 0
      000101 00                     316 	.db #0x00	; 0
      000102 00                     317 	.db #0x00	; 0
      000103 00                     318 	.db #0x00	; 0
      000104 00                     319 	.db #0x00	; 0
      000105 00                     320 	.db #0x00	; 0
      000106 00                     321 	.db #0x00	; 0
      000107 00                     322 	.db #0x00	; 0
      000108 00                     323 	.db #0x00	; 0
      000109 00                     324 	.db #0x00	; 0
      00010A 00                     325 	.db #0x00	; 0
      00010B 00                     326 	.db #0x00	; 0
      00010C 00                     327 	.db #0x00	; 0
      00010D 00                     328 	.db #0x00	; 0
      00010E 00                     329 	.db #0x00	; 0
      00010F 00                     330 	.db #0x00	; 0
      000110 00                     331 	.db #0x00	; 0
      000111 00                     332 	.db #0x00	; 0
      000112 00                     333 	.db #0x00	; 0
      000113 00                     334 	.db #0x00	; 0
      000114 00                     335 	.db #0x00	; 0
      000115 00                     336 	.db #0x00	; 0
      000116 00                     337 	.db #0x00	; 0
      000117 00                     338 	.db #0x00	; 0
      000118 00                     339 	.db #0x00	; 0
      000119 00                     340 	.db #0x00	; 0
      00011A 00                     341 	.db #0x00	; 0
      00011B 00                     342 	.db #0x00	; 0
      00011C 00                     343 	.db #0x00	; 0
      00011D 00                     344 	.db #0x00	; 0
      00011E 00                     345 	.db #0x00	; 0
      00011F 00                     346 	.db #0x00	; 0
      000120 00                     347 	.db #0x00	; 0
      000121 00                     348 	.db #0x00	; 0
      000122 00                     349 	.db #0x00	; 0
      000123 00                     350 	.db #0x00	; 0
      000124 00                     351 	.db #0x00	; 0
      000125 00                     352 	.db #0x00	; 0
      000126 00                     353 	.db #0x00	; 0
      000127 00                     354 	.db #0x00	; 0
      000128 00                     355 	.db #0x00	; 0
      000129 00                     356 	.db #0x00	; 0
      00012A 00                     357 	.db #0x00	; 0
      00012B 00                     358 	.db #0x00	; 0
      00012C 00                     359 	.db #0x00	; 0
      00012D 00                     360 	.db #0x00	; 0
      00012E 00                     361 	.db #0x00	; 0
      00012F 00                     362 	.db #0x00	; 0
      000130 00                     363 	.db #0x00	; 0
      000131 00                     364 	.db #0x00	; 0
      000132 00                     365 	.db #0x00	; 0
      000133 00                     366 	.db #0x00	; 0
      000134 00                     367 	.db #0x00	; 0
      000135 00                     368 	.db #0x00	; 0
      000136 00                     369 	.db #0x00	; 0
      000137 00                     370 	.db #0x00	; 0
      000138 00                     371 	.db #0x00	; 0
      000139 00                     372 	.db #0x00	; 0
      00013A 00                     373 	.db #0x00	; 0
      00013B 00                     374 	.db #0x00	; 0
      00013C 00                     375 	.db #0x00	; 0
      00013D 00                     376 	.db #0x00	; 0
      00013E 00                     377 	.db #0x00	; 0
      00013F 00                     378 	.db #0x00	; 0
      000140 00                     379 	.db #0x00	; 0
      000141 00                     380 	.db #0x00	; 0
      000142 00                     381 	.db #0x00	; 0
      000143 00                     382 	.db #0x00	; 0
      000144 00                     383 	.db #0x00	; 0
      000145 00                     384 	.db #0x00	; 0
      000146 00                     385 	.db #0x00	; 0
      000147 00                     386 	.db #0x00	; 0
      000148 00                     387 	.db #0x00	; 0
      000149 00                     388 	.db #0x00	; 0
      00014A 00                     389 	.db #0x00	; 0
      00014B 00                     390 	.db #0x00	; 0
      00014C 00                     391 	.db #0x00	; 0
      00014D 00                     392 	.db #0x00	; 0
      00014E 00                     393 	.db #0x00	; 0
      00014F 00                     394 	.db #0x00	; 0
      000150 00                     395 	.db #0x00	; 0
      000151 00                     396 	.db #0x00	; 0
      000152 00                     397 	.db #0x00	; 0
      000153 00                     398 	.db #0x00	; 0
      000154 00                     399 	.db #0x00	; 0
      000155 00                     400 	.db #0x00	; 0
      000156 00                     401 	.db #0x00	; 0
      000157 00                     402 	.db #0x00	; 0
      000158 00                     403 	.db #0x00	; 0
      000159 00                     404 	.db #0x00	; 0
      00015A 00                     405 	.db #0x00	; 0
      00015B 00                     406 	.db #0x00	; 0
      00015C 00                     407 	.db #0x00	; 0
      00015D 00                     408 	.db #0x00	; 0
      00015E 00                     409 	.db #0x00	; 0
      00015F 00                     410 	.db #0x00	; 0
      000160 00                     411 	.db #0x00	; 0
      000161 00                     412 	.db #0x00	; 0
      000162 00                     413 	.db #0x00	; 0
      000163 00                     414 	.db #0x00	; 0
      000164 00                     415 	.db #0x00	; 0
      000165 00                     416 	.db #0x00	; 0
      000166 00                     417 	.db #0x00	; 0
      000167 00                     418 	.db #0x00	; 0
      000168 00                     419 	.db #0x00	; 0
      000169 00                     420 	.db #0x00	; 0
      00016A 00                     421 	.db #0x00	; 0
      00016B 00                     422 	.db #0x00	; 0
      00016C 00                     423 	.db #0x00	; 0
      00016D 00                     424 	.db #0x00	; 0
      00016E 00                     425 	.db #0x00	; 0
      00016F 00                     426 	.db #0x00	; 0
      000170 00                     427 	.db #0x00	; 0
      000171                        428 _test_dungeon:
      000171 00                     429 	.db #0x00	; 0
      000172 00                     430 	.db #0x00	; 0
      000173 00                     431 	.db #0x00	; 0
      000174 00                     432 	.db #0x00	; 0
      000175 00                     433 	.db #0x00	; 0
      000176 00                     434 	.db #0x00	; 0
      000177 00                     435 	.db #0x00	; 0
      000178 00                     436 	.db #0x00	; 0
      000179 00                     437 	.db #0x00	; 0
      00017A 00                     438 	.db #0x00	; 0
      00017B 00                     439 	.db #0x00	; 0
      00017C 00                     440 	.db #0x00	; 0
      00017D 00                     441 	.db #0x00	; 0
      00017E 00                     442 	.db #0x00	; 0
      00017F 00                     443 	.db #0x00	; 0
      000180 00                     444 	.db #0x00	; 0
      000181 00                     445 	.db #0x00	; 0
      000182 00                     446 	.db #0x00	; 0
      000183 00                     447 	.db #0x00	; 0
      000184 00                     448 	.db #0x00	; 0
      000185 00                     449 	.db #0x00	; 0
      000186 06                     450 	.db #0x06	; 6
      000187 00                     451 	.db #0x00	; 0
      000188 06                     452 	.db #0x06	; 6
      000189 00                     453 	.db #0x00	; 0
      00018A 00                     454 	.db #0x00	; 0
      00018B 00                     455 	.db #0x00	; 0
      00018C 00                     456 	.db #0x00	; 0
      00018D 00                     457 	.db #0x00	; 0
      00018E 00                     458 	.db #0x00	; 0
      00018F 00                     459 	.db #0x00	; 0
      000190 00                     460 	.db #0x00	; 0
      000191 00                     461 	.db #0x00	; 0
      000192 00                     462 	.db #0x00	; 0
      000193 00                     463 	.db #0x00	; 0
      000194 00                     464 	.db #0x00	; 0
      000195 05                     465 	.db #0x05	; 5
      000196 00                     466 	.db #0x00	; 0
      000197 05                     467 	.db #0x05	; 5
      000198 00                     468 	.db #0x00	; 0
      000199 00                     469 	.db #0x00	; 0
      00019A 00                     470 	.db #0x00	; 0
      00019B 00                     471 	.db #0x00	; 0
      00019C 00                     472 	.db #0x00	; 0
      00019D 00                     473 	.db #0x00	; 0
      00019E 00                     474 	.db #0x00	; 0
      00019F 00                     475 	.db #0x00	; 0
      0001A0 00                     476 	.db #0x00	; 0
      0001A1 00                     477 	.db #0x00	; 0
      0001A2 00                     478 	.db #0x00	; 0
      0001A3 00                     479 	.db #0x00	; 0
      0001A4 04                     480 	.db #0x04	; 4
      0001A5 00                     481 	.db #0x00	; 0
      0001A6 04                     482 	.db #0x04	; 4
      0001A7 00                     483 	.db #0x00	; 0
      0001A8 00                     484 	.db #0x00	; 0
      0001A9 00                     485 	.db #0x00	; 0
      0001AA 00                     486 	.db #0x00	; 0
      0001AB 00                     487 	.db #0x00	; 0
      0001AC 00                     488 	.db #0x00	; 0
      0001AD 00                     489 	.db #0x00	; 0
      0001AE 00                     490 	.db #0x00	; 0
      0001AF 00                     491 	.db #0x00	; 0
      0001B0 00                     492 	.db #0x00	; 0
      0001B1 00                     493 	.db #0x00	; 0
      0001B2 00                     494 	.db #0x00	; 0
      0001B3 03                     495 	.db #0x03	; 3
      0001B4 00                     496 	.db #0x00	; 0
      0001B5 03                     497 	.db #0x03	; 3
      0001B6 00                     498 	.db #0x00	; 0
      0001B7 00                     499 	.db #0x00	; 0
      0001B8 00                     500 	.db #0x00	; 0
      0001B9 00                     501 	.db #0x00	; 0
      0001BA 00                     502 	.db #0x00	; 0
      0001BB 00                     503 	.db #0x00	; 0
      0001BC 00                     504 	.db #0x00	; 0
      0001BD 00                     505 	.db #0x00	; 0
      0001BE 00                     506 	.db #0x00	; 0
      0001BF 00                     507 	.db #0x00	; 0
      0001C0 00                     508 	.db #0x00	; 0
      0001C1 00                     509 	.db #0x00	; 0
      0001C2 02                     510 	.db #0x02	; 2
      0001C3 00                     511 	.db #0x00	; 0
      0001C4 02                     512 	.db #0x02	; 2
      0001C5 03                     513 	.db #0x03	; 3
      0001C6 04                     514 	.db #0x04	; 4
      0001C7 05                     515 	.db #0x05	; 5
      0001C8 06                     516 	.db #0x06	; 6
      0001C9 00                     517 	.db #0x00	; 0
      0001CA 00                     518 	.db #0x00	; 0
      0001CB 00                     519 	.db #0x00	; 0
      0001CC 00                     520 	.db #0x00	; 0
      0001CD 00                     521 	.db #0x00	; 0
      0001CE 00                     522 	.db #0x00	; 0
      0001CF 02                     523 	.db #0x02	; 2
      0001D0 00                     524 	.db #0x00	; 0
      0001D1 00                     525 	.db #0x00	; 0
      0001D2 01                     526 	.db #0x01	; 1
      0001D3 00                     527 	.db #0x00	; 0
      0001D4 00                     528 	.db #0x00	; 0
      0001D5 00                     529 	.db #0x00	; 0
      0001D6 00                     530 	.db #0x00	; 0
      0001D7 00                     531 	.db #0x00	; 0
      0001D8 00                     532 	.db #0x00	; 0
      0001D9 00                     533 	.db #0x00	; 0
      0001DA 00                     534 	.db #0x00	; 0
      0001DB 00                     535 	.db #0x00	; 0
      0001DC 00                     536 	.db #0x00	; 0
      0001DD 00                     537 	.db #0x00	; 0
      0001DE 00                     538 	.db #0x00	; 0
      0001DF 00                     539 	.db #0x00	; 0
      0001E0 02                     540 	.db #0x02	; 2
      0001E1 00                     541 	.db #0x00	; 0
      0001E2 02                     542 	.db #0x02	; 2
      0001E3 03                     543 	.db #0x03	; 3
      0001E4 04                     544 	.db #0x04	; 4
      0001E5 05                     545 	.db #0x05	; 5
      0001E6 06                     546 	.db #0x06	; 6
      0001E7 00                     547 	.db #0x00	; 0
      0001E8 00                     548 	.db #0x00	; 0
      0001E9 00                     549 	.db #0x00	; 0
      0001EA 00                     550 	.db #0x00	; 0
      0001EB 00                     551 	.db #0x00	; 0
      0001EC 00                     552 	.db #0x00	; 0
      0001ED 00                     553 	.db #0x00	; 0
      0001EE 00                     554 	.db #0x00	; 0
      0001EF 00                     555 	.db #0x00	; 0
      0001F0 00                     556 	.db #0x00	; 0
      0001F1 00                     557 	.db #0x00	; 0
      0001F2 00                     558 	.db #0x00	; 0
      0001F3 00                     559 	.db #0x00	; 0
      0001F4 00                     560 	.db #0x00	; 0
      0001F5 00                     561 	.db #0x00	; 0
      0001F6 00                     562 	.db #0x00	; 0
      0001F7 00                     563 	.db #0x00	; 0
      0001F8 00                     564 	.db #0x00	; 0
      0001F9 00                     565 	.db #0x00	; 0
      0001FA 00                     566 	.db #0x00	; 0
      0001FB 00                     567 	.db #0x00	; 0
      0001FC 00                     568 	.db #0x00	; 0
      0001FD 00                     569 	.db #0x00	; 0
      0001FE 00                     570 	.db #0x00	; 0
      0001FF 02                     571 	.db #0x02	; 2
      000200 00                     572 	.db #0x00	; 0
      000201 00                     573 	.db #0x00	; 0
      000202 00                     574 	.db #0x00	; 0
      000203 00                     575 	.db #0x00	; 0
      000204 00                     576 	.db #0x00	; 0
      000205 00                     577 	.db #0x00	; 0
      000206 00                     578 	.db #0x00	; 0
      000207 00                     579 	.db #0x00	; 0
      000208 00                     580 	.db #0x00	; 0
      000209 00                     581 	.db #0x00	; 0
      00020A 00                     582 	.db #0x00	; 0
      00020B 00                     583 	.db #0x00	; 0
      00020C 00                     584 	.db #0x00	; 0
      00020D 00                     585 	.db #0x00	; 0
      00020E 02                     586 	.db #0x02	; 2
      00020F 00                     587 	.db #0x00	; 0
      000210 00                     588 	.db #0x00	; 0
      000211 00                     589 	.db #0x00	; 0
      000212 00                     590 	.db #0x00	; 0
      000213 00                     591 	.db #0x00	; 0
      000214 00                     592 	.db #0x00	; 0
      000215 00                     593 	.db #0x00	; 0
      000216 00                     594 	.db #0x00	; 0
      000217 00                     595 	.db #0x00	; 0
      000218 00                     596 	.db #0x00	; 0
      000219 00                     597 	.db #0x00	; 0
      00021A 00                     598 	.db #0x00	; 0
      00021B 00                     599 	.db #0x00	; 0
      00021C 00                     600 	.db #0x00	; 0
      00021D 00                     601 	.db #0x00	; 0
      00021E 00                     602 	.db #0x00	; 0
      00021F 00                     603 	.db #0x00	; 0
      000220 00                     604 	.db #0x00	; 0
      000221 00                     605 	.db #0x00	; 0
      000222 00                     606 	.db #0x00	; 0
      000223 00                     607 	.db #0x00	; 0
      000224 00                     608 	.db #0x00	; 0
      000225 00                     609 	.db #0x00	; 0
      000226 00                     610 	.db #0x00	; 0
      000227 00                     611 	.db #0x00	; 0
      000228 00                     612 	.db #0x00	; 0
      000229 00                     613 	.db #0x00	; 0
      00022A 00                     614 	.db #0x00	; 0
      00022B 00                     615 	.db #0x00	; 0
      00022C 00                     616 	.db #0x00	; 0
      00022D 00                     617 	.db #0x00	; 0
      00022E 00                     618 	.db #0x00	; 0
      00022F 00                     619 	.db #0x00	; 0
      000230 00                     620 	.db #0x00	; 0
      000231 00                     621 	.db #0x00	; 0
      000232 00                     622 	.db #0x00	; 0
      000233 00                     623 	.db #0x00	; 0
      000234 00                     624 	.db #0x00	; 0
      000235 00                     625 	.db #0x00	; 0
      000236 00                     626 	.db #0x00	; 0
      000237 00                     627 	.db #0x00	; 0
      000238 00                     628 	.db #0x00	; 0
      000239 00                     629 	.db #0x00	; 0
      00023A 00                     630 	.db #0x00	; 0
      00023B 00                     631 	.db #0x00	; 0
      00023C 00                     632 	.db #0x00	; 0
      00023D 00                     633 	.db #0x00	; 0
      00023E 00                     634 	.db #0x00	; 0
      00023F 00                     635 	.db #0x00	; 0
      000240 00                     636 	.db #0x00	; 0
      000241 00                     637 	.db #0x00	; 0
      000242 00                     638 	.db #0x00	; 0
      000243 00                     639 	.db #0x00	; 0
      000244 00                     640 	.db #0x00	; 0
      000245 00                     641 	.db #0x00	; 0
      000246 00                     642 	.db #0x00	; 0
      000247 00                     643 	.db #0x00	; 0
      000248 00                     644 	.db #0x00	; 0
      000249 00                     645 	.db #0x00	; 0
      00024A 00                     646 	.db #0x00	; 0
      00024B 00                     647 	.db #0x00	; 0
      00024C 00                     648 	.db #0x00	; 0
      00024D 00                     649 	.db #0x00	; 0
      00024E 00                     650 	.db #0x00	; 0
      00024F 00                     651 	.db #0x00	; 0
      000250 00                     652 	.db #0x00	; 0
      000251 00                     653 	.db #0x00	; 0
                                    654 ;src/main.c:76: void update_dng(unsigned char *dng,uint8_t dungeon_width, uint8_t dungeon_hieght){
                                    655 ;	---------------------------------
                                    656 ; Function update_dng
                                    657 ; ---------------------------------
      000252                        658 _update_dng::
      000252 4F               [ 4]  659 	ld	c, a
                                    660 ;src/main.c:79: set_bkg_tiles(0,0,20,13,white_screen);
      000253 D5               [16]  661 	push	de
      000254 21r6Dr00         [12]  662 	ld	hl, #_white_screen
      000257 E5               [16]  663 	push	hl
      000258 21 14 0D         [12]  664 	ld	hl, #0xd14
      00025B E5               [16]  665 	push	hl
      00025C AF               [ 4]  666 	xor	a, a
      00025D 0F               [ 4]  667 	rrca
      00025E F5               [16]  668 	push	af
      00025F CDr00r00         [24]  669 	call	_set_bkg_tiles
      000262 E8 06            [16]  670 	add	sp, #6
      000264 D1               [12]  671 	pop	de
                                    672 ;src/main.c:81: check_l_walls(dng,dungeon_width,dungeon_hieght,player_x, player_y, player_dir);
      000265 C5               [16]  673 	push	bc
      000266 D5               [16]  674 	push	de
      000267 FArCBr00         [16]  675 	ld	a, (#_player_dir)
      00026A 67               [ 4]  676 	ld	h, a
      00026B FAr01r00         [16]  677 	ld	a, (#_player_y)
      00026E 6F               [ 4]  678 	ld	l, a
      00026F E5               [16]  679 	push	hl
      000270 FAr00r00         [16]  680 	ld	a, (#_player_x)
      000273 F5               [16]  681 	push	af
      000274 33               [ 8]  682 	inc	sp
      000275 F8 09            [12]  683 	ldhl	sp,	#9
      000277 7E               [ 8]  684 	ld	a, (hl)
      000278 F5               [16]  685 	push	af
      000279 33               [ 8]  686 	inc	sp
      00027A 79               [ 4]  687 	ld	a, c
      00027B CDr00r00         [24]  688 	call	_check_l_walls
      00027E D1               [12]  689 	pop	de
      00027F C1               [12]  690 	pop	bc
                                    691 ;src/main.c:82: check_r_walls(dng,dungeon_width,dungeon_hieght,player_x, player_y, player_dir);
      000280 C5               [16]  692 	push	bc
      000281 D5               [16]  693 	push	de
      000282 FArCBr00         [16]  694 	ld	a, (#_player_dir)
      000285 67               [ 4]  695 	ld	h, a
      000286 FAr01r00         [16]  696 	ld	a, (#_player_y)
      000289 6F               [ 4]  697 	ld	l, a
      00028A E5               [16]  698 	push	hl
      00028B FAr00r00         [16]  699 	ld	a, (#_player_x)
      00028E F5               [16]  700 	push	af
      00028F 33               [ 8]  701 	inc	sp
      000290 F8 09            [12]  702 	ldhl	sp,	#9
      000292 7E               [ 8]  703 	ld	a, (hl)
      000293 F5               [16]  704 	push	af
      000294 33               [ 8]  705 	inc	sp
      000295 79               [ 4]  706 	ld	a, c
      000296 CDr00r00         [24]  707 	call	_check_r_walls
      000299 D1               [12]  708 	pop	de
      00029A C1               [12]  709 	pop	bc
                                    710 ;src/main.c:83: check_m_walls(dng,dungeon_width,dungeon_hieght, player_x, player_y,player_dir);
      00029B FArCBr00         [16]  711 	ld	a, (#_player_dir)
      00029E 67               [ 4]  712 	ld	h, a
      00029F FAr01r00         [16]  713 	ld	a, (#_player_y)
      0002A2 6F               [ 4]  714 	ld	l, a
      0002A3 E5               [16]  715 	push	hl
      0002A4 FAr00r00         [16]  716 	ld	a, (#_player_x)
      0002A7 F5               [16]  717 	push	af
      0002A8 33               [ 8]  718 	inc	sp
      0002A9 F8 05            [12]  719 	ldhl	sp,	#5
      0002AB 7E               [ 8]  720 	ld	a, (hl)
      0002AC F5               [16]  721 	push	af
      0002AD 33               [ 8]  722 	inc	sp
      0002AE 79               [ 4]  723 	ld	a, c
      0002AF CDr00r00         [24]  724 	call	_check_m_walls
                                    725 ;src/main.c:85: }
      0002B2 E1               [12]  726 	pop	hl
      0002B3 33               [ 8]  727 	inc	sp
      0002B4 E9               [ 4]  728 	jp	(hl)
                                    729 ;src/main.c:87: void collision_check(const unsigned char *dng, uint8_t dng_width, uint8_t dng_height){
                                    730 ;	---------------------------------
                                    731 ; Function collision_check
                                    732 ; ---------------------------------
      0002B5                        733 _collision_check::
                                    734 ;src/main.c:89: }
      0002B5 E1               [12]  735 	pop	hl
      0002B6 33               [ 8]  736 	inc	sp
      0002B7 E9               [ 4]  737 	jp	(hl)
                                    738 ;src/main.c:91: void init_dng_UI(){
                                    739 ;	---------------------------------
                                    740 ; Function init_dng_UI
                                    741 ; ---------------------------------
      0002B8                        742 _init_dng_UI::
                                    743 ;../gbdk/include/gb/gb.h:1675: OAM_item_t * itm = &shadow_OAM[nb];
      0002B8 21r00r00         [12]  744 	ld	hl, #_shadow_OAM
                                    745 ;../gbdk/include/gb/gb.h:1676: itm->y=y, itm->x=x;
      0002BB 3E 14            [ 8]  746 	ld	a, #0x14
      0002BD 22               [ 8]  747 	ld	(hl+), a
      0002BE 36 50            [12]  748 	ld	(hl), #0x50
                                    749 ;../gbdk/include/gb/gb.h:1675: OAM_item_t * itm = &shadow_OAM[nb];
      0002C0 21r04r00         [12]  750 	ld	hl, #(_shadow_OAM + 4)
                                    751 ;../gbdk/include/gb/gb.h:1676: itm->y=y, itm->x=x;
      0002C3 3E 1C            [ 8]  752 	ld	a, #0x1c
      0002C5 22               [ 8]  753 	ld	(hl+), a
      0002C6 36 50            [12]  754 	ld	(hl), #0x50
                                    755 ;../gbdk/include/gb/gb.h:1675: OAM_item_t * itm = &shadow_OAM[nb];
      0002C8 21r08r00         [12]  756 	ld	hl, #(_shadow_OAM + 8)
                                    757 ;../gbdk/include/gb/gb.h:1676: itm->y=y, itm->x=x;
      0002CB 3E 1C            [ 8]  758 	ld	a, #0x1c
      0002CD 22               [ 8]  759 	ld	(hl+), a
      0002CE 36 58            [12]  760 	ld	(hl), #0x58
                                    761 ;../gbdk/include/gb/gb.h:1675: OAM_item_t * itm = &shadow_OAM[nb];
      0002D0 21r0Cr00         [12]  762 	ld	hl, #(_shadow_OAM + 12)
                                    763 ;../gbdk/include/gb/gb.h:1676: itm->y=y, itm->x=x;
      0002D3 3E 14            [ 8]  764 	ld	a, #0x14
      0002D5 22               [ 8]  765 	ld	(hl+), a
      0002D6 36 58            [12]  766 	ld	(hl), #0x58
                                    767 ;../gbdk/include/gb/gb.h:1675: OAM_item_t * itm = &shadow_OAM[nb];
      0002D8 21r10r00         [12]  768 	ld	hl, #(_shadow_OAM + 16)
                                    769 ;../gbdk/include/gb/gb.h:1676: itm->y=y, itm->x=x;
      0002DB 3E 14            [ 8]  770 	ld	a, #0x14
      0002DD 22               [ 8]  771 	ld	(hl+), a
      0002DE 36 40            [12]  772 	ld	(hl), #0x40
                                    773 ;../gbdk/include/gb/gb.h:1675: OAM_item_t * itm = &shadow_OAM[nb];
      0002E0 21r14r00         [12]  774 	ld	hl, #(_shadow_OAM + 20)
                                    775 ;../gbdk/include/gb/gb.h:1676: itm->y=y, itm->x=x;
      0002E3 3E 14            [ 8]  776 	ld	a, #0x14
      0002E5 22               [ 8]  777 	ld	(hl+), a
      0002E6 36 68            [12]  778 	ld	(hl), #0x68
                                    779 ;src/main.c:97: move_sprite(5,104,20);
                                    780 ;src/main.c:99: }
      0002E8 C9               [16]  781 	ret
                                    782 ;src/main.c:101: void update_dng_UI (){
                                    783 ;	---------------------------------
                                    784 ; Function update_dng_UI
                                    785 ; ---------------------------------
      0002E9                        786 _update_dng_UI::
                                    787 ;../gbdk/include/gb/gb.h:1648: shadow_OAM[nb].prop=prop;
      0002E9 21r03r00         [12]  788 	ld	hl, #(_shadow_OAM + 3)
      0002EC 36 00            [12]  789 	ld	(hl), #0x00
      0002EE 21r07r00         [12]  790 	ld	hl, #(_shadow_OAM + 7)
      0002F1 36 00            [12]  791 	ld	(hl), #0x00
      0002F3 21r0Br00         [12]  792 	ld	hl, #(_shadow_OAM + 11)
      0002F6 36 00            [12]  793 	ld	(hl), #0x00
      0002F8 21r0Fr00         [12]  794 	ld	hl, #(_shadow_OAM + 15)
      0002FB 36 00            [12]  795 	ld	(hl), #0x00
                                    796 ;src/main.c:107: switch(player_dir){
      0002FD FArCBr00         [16]  797 	ld	a, (#_player_dir)
      000300 B7               [ 4]  798 	or	a, a
      000301 28 17            [12]  799 	jr	Z, 00101$
      000303 FArCBr00         [16]  800 	ld	a, (#_player_dir)
      000306 3D               [ 4]  801 	dec	a
      000307 28 31            [12]  802 	jr	Z, 00102$
      000309 FArCBr00         [16]  803 	ld	a, (#_player_dir)
      00030C D6 02            [ 8]  804 	sub	a, #0x02
      00030E 28 4A            [12]  805 	jr	Z, 00103$
      000310 FArCBr00         [16]  806 	ld	a, (#_player_dir)
      000313 D6 03            [ 8]  807 	sub	a, #0x03
      000315 28 63            [12]  808 	jr	Z, 00104$
      000317 C3r98r03         [16]  809 	jp	00105$
                                    810 ;src/main.c:108: case 0:            
      00031A                        811 00101$:
                                    812 ;../gbdk/include/gb/gb.h:1602: shadow_OAM[nb].tile=tile;
      00031A 21r02r00         [12]  813 	ld	hl, #(_shadow_OAM + 2)
      00031D 36 01            [12]  814 	ld	(hl), #0x01
      00031F 21r06r00         [12]  815 	ld	hl, #(_shadow_OAM + 6)
      000322 36 02            [12]  816 	ld	(hl), #0x02
      000324 21r0Ar00         [12]  817 	ld	hl, #(_shadow_OAM + 10)
      000327 36 01            [12]  818 	ld	(hl), #0x01
      000329 21r0Er00         [12]  819 	ld	hl, #(_shadow_OAM + 14)
      00032C 36 02            [12]  820 	ld	(hl), #0x02
                                    821 ;../gbdk/include/gb/gb.h:1648: shadow_OAM[nb].prop=prop;
      00032E 21r0Br00         [12]  822 	ld	hl, #(_shadow_OAM + 11)
      000331 36 60            [12]  823 	ld	(hl), #0x60
      000333 21r0Fr00         [12]  824 	ld	hl, #(_shadow_OAM + 15)
      000336 36 60            [12]  825 	ld	(hl), #0x60
                                    826 ;src/main.c:115: break;
      000338 18 5E            [12]  827 	jr	00105$
                                    828 ;src/main.c:117: case 1:            
      00033A                        829 00102$:
                                    830 ;../gbdk/include/gb/gb.h:1602: shadow_OAM[nb].tile=tile;
      00033A 21r02r00         [12]  831 	ld	hl, #(_shadow_OAM + 2)
      00033D 36 03            [12]  832 	ld	(hl), #0x03
      00033F 21r06r00         [12]  833 	ld	hl, #(_shadow_OAM + 6)
      000342 36 03            [12]  834 	ld	(hl), #0x03
      000344 21r0Ar00         [12]  835 	ld	hl, #(_shadow_OAM + 10)
      000347 36 04            [12]  836 	ld	(hl), #0x04
      000349 21r0Er00         [12]  837 	ld	hl, #(_shadow_OAM + 14)
      00034C 36 04            [12]  838 	ld	(hl), #0x04
                                    839 ;../gbdk/include/gb/gb.h:1648: shadow_OAM[nb].prop=prop;
      00034E 21r0Br00         [12]  840 	ld	hl, #(_shadow_OAM + 11)
      000351 36 40            [12]  841 	ld	(hl), #0x40
      000353 21r07r00         [12]  842 	ld	hl, #(_shadow_OAM + 7)
      000356 36 40            [12]  843 	ld	(hl), #0x40
                                    844 ;src/main.c:124: break;
      000358 18 3E            [12]  845 	jr	00105$
                                    846 ;src/main.c:126: case 2:
      00035A                        847 00103$:
                                    848 ;../gbdk/include/gb/gb.h:1602: shadow_OAM[nb].tile=tile;
      00035A 21r02r00         [12]  849 	ld	hl, #(_shadow_OAM + 2)
      00035D 36 06            [12]  850 	ld	(hl), #0x06
      00035F 21r06r00         [12]  851 	ld	hl, #(_shadow_OAM + 6)
      000362 36 05            [12]  852 	ld	(hl), #0x05
      000364 21r0Ar00         [12]  853 	ld	hl, #(_shadow_OAM + 10)
      000367 36 06            [12]  854 	ld	(hl), #0x06
      000369 21r0Er00         [12]  855 	ld	hl, #(_shadow_OAM + 14)
      00036C 36 05            [12]  856 	ld	(hl), #0x05
                                    857 ;../gbdk/include/gb/gb.h:1648: shadow_OAM[nb].prop=prop;
      00036E 21r07r00         [12]  858 	ld	hl, #(_shadow_OAM + 7)
      000371 36 60            [12]  859 	ld	(hl), #0x60
      000373 21r0Br00         [12]  860 	ld	hl, #(_shadow_OAM + 11)
      000376 36 60            [12]  861 	ld	(hl), #0x60
                                    862 ;src/main.c:135: break;
      000378 18 1E            [12]  863 	jr	00105$
                                    864 ;src/main.c:137: case 3:
      00037A                        865 00104$:
                                    866 ;../gbdk/include/gb/gb.h:1602: shadow_OAM[nb].tile=tile;
      00037A 21r02r00         [12]  867 	ld	hl, #(_shadow_OAM + 2)
      00037D 36 07            [12]  868 	ld	(hl), #0x07
      00037F 21r06r00         [12]  869 	ld	hl, #(_shadow_OAM + 6)
      000382 36 08            [12]  870 	ld	(hl), #0x08
      000384 21r0Ar00         [12]  871 	ld	hl, #(_shadow_OAM + 10)
      000387 36 08            [12]  872 	ld	(hl), #0x08
      000389 21r0Er00         [12]  873 	ld	hl, #(_shadow_OAM + 14)
      00038C 36 07            [12]  874 	ld	(hl), #0x07
                                    875 ;../gbdk/include/gb/gb.h:1648: shadow_OAM[nb].prop=prop;
      00038E 21r0Br00         [12]  876 	ld	hl, #(_shadow_OAM + 11)
      000391 36 20            [12]  877 	ld	(hl), #0x20
      000393 21r0Fr00         [12]  878 	ld	hl, #(_shadow_OAM + 15)
      000396 36 20            [12]  879 	ld	(hl), #0x20
                                    880 ;src/main.c:145: }
      000398                        881 00105$:
                                    882 ;src/main.c:148: switch(player_dir){
      000398 FArCBr00         [16]  883 	ld	a, (#_player_dir)
      00039B B7               [ 4]  884 	or	a, a
      00039C 28 15            [12]  885 	jr	Z, 00106$
      00039E FArCBr00         [16]  886 	ld	a, (#_player_dir)
      0003A1 3D               [ 4]  887 	dec	a
      0003A2 28 1A            [12]  888 	jr	Z, 00107$
      0003A4 FArCBr00         [16]  889 	ld	a, (#_player_dir)
      0003A7 D6 02            [ 8]  890 	sub	a, #0x02
      0003A9 28 1E            [12]  891 	jr	Z, 00108$
      0003AB FArCBr00         [16]  892 	ld	a, (#_player_dir)
      0003AE D6 03            [ 8]  893 	sub	a, #0x03
      0003B0 28 22            [12]  894 	jr	Z, 00109$
      0003B2 C9               [16]  895 	ret
                                    896 ;src/main.c:149: case 0:            
      0003B3                        897 00106$:
                                    898 ;../gbdk/include/gb/gb.h:1602: shadow_OAM[nb].tile=tile;
      0003B3 21r12r00         [12]  899 	ld	hl, #(_shadow_OAM + 18)
      0003B6 36 0C            [12]  900 	ld	(hl), #0x0c
      0003B8 21r16r00         [12]  901 	ld	hl, #(_shadow_OAM + 22)
      0003BB 36 0A            [12]  902 	ld	(hl), #0x0a
                                    903 ;src/main.c:152: break;
      0003BD C9               [16]  904 	ret
                                    905 ;src/main.c:154: case 1:            
      0003BE                        906 00107$:
                                    907 ;../gbdk/include/gb/gb.h:1602: shadow_OAM[nb].tile=tile;
      0003BE 21r12r00         [12]  908 	ld	hl, #(_shadow_OAM + 18)
      0003C1 36 09            [12]  909 	ld	(hl), #0x09
      0003C3 21r16r00         [12]  910 	ld	hl, #(_shadow_OAM + 22)
      0003C6 36 0B            [12]  911 	ld	(hl), #0x0b
                                    912 ;src/main.c:157: break;
      0003C8 C9               [16]  913 	ret
                                    914 ;src/main.c:159: case 2:
      0003C9                        915 00108$:
                                    916 ;../gbdk/include/gb/gb.h:1602: shadow_OAM[nb].tile=tile;
      0003C9 21r12r00         [12]  917 	ld	hl, #(_shadow_OAM + 18)
      0003CC 36 0A            [12]  918 	ld	(hl), #0x0a
      0003CE 21r16r00         [12]  919 	ld	hl, #(_shadow_OAM + 22)
      0003D1 36 0C            [12]  920 	ld	(hl), #0x0c
                                    921 ;src/main.c:164: break;
      0003D3 C9               [16]  922 	ret
                                    923 ;src/main.c:166: case 3:
      0003D4                        924 00109$:
                                    925 ;../gbdk/include/gb/gb.h:1602: shadow_OAM[nb].tile=tile;
      0003D4 21r12r00         [12]  926 	ld	hl, #(_shadow_OAM + 18)
      0003D7 36 0B            [12]  927 	ld	(hl), #0x0b
      0003D9 21r16r00         [12]  928 	ld	hl, #(_shadow_OAM + 22)
      0003DC 36 09            [12]  929 	ld	(hl), #0x09
                                    930 ;src/main.c:170: }
                                    931 ;src/main.c:173: }
      0003DE C9               [16]  932 	ret
                                    933 ;src/main.c:175: void dungeon_logic_upd(){
                                    934 ;	---------------------------------
                                    935 ; Function dungeon_logic_upd
                                    936 ; ---------------------------------
      0003DF                        937 _dungeon_logic_upd::
                                    938 ;src/main.c:176: joypad_previous = joypad_current;
      0003DF FArCCr00         [16]  939 	ld	a, (#_joypad_current)
      0003E2 EArCDr00         [16]  940 	ld	(#_joypad_previous),a
                                    941 ;src/main.c:177: joypad_current = joypad();
      0003E5 CDr00r00         [24]  942 	call	_joypad
      0003E8 21rCCr00         [12]  943 	ld	hl, #_joypad_current
      0003EB 77               [ 8]  944 	ld	(hl), a
                                    945 ;src/main.c:179: if((joypad_current & J_LEFT) && !(joypad_previous & J_LEFT)){
      0003EC CB 4E            [12]  946 	bit	1, (hl)
      0003EE 28 20            [12]  947 	jr	Z, 00104$
      0003F0 FArCDr00         [16]  948 	ld	a, (#_joypad_previous)
      0003F3 CB 4F            [ 8]  949 	bit	1, a
      0003F5 20 19            [12]  950 	jr	NZ, 00104$
                                    951 ;src/main.c:180: player_dir--;
      0003F7 21rCBr00         [12]  952 	ld	hl, #_player_dir
      0003FA 35               [12]  953 	dec	(hl)
                                    954 ;src/main.c:181: if (player_dir==255){
      0003FB 7E               [ 8]  955 	ld	a, (hl)
      0003FC 3C               [ 4]  956 	inc	a
      0003FD 20 05            [12]  957 	jr	NZ, 00102$
                                    958 ;src/main.c:182: player_dir = west;
      0003FF 21rCBr00         [12]  959 	ld	hl, #_player_dir
      000402 36 03            [12]  960 	ld	(hl), #0x03
      000404                        961 00102$:
                                    962 ;src/main.c:184: update_dng(test_dungeon,15,15);
      000404 3E 0F            [ 8]  963 	ld	a, #0x0f
      000406 F5               [16]  964 	push	af
      000407 33               [ 8]  965 	inc	sp
      000408 3E 0F            [ 8]  966 	ld	a, #0x0f
      00040A 11r71r01         [12]  967 	ld	de, #_test_dungeon
      00040D CDr52r02         [24]  968 	call	_update_dng
      000410                        969 00104$:
                                    970 ;src/main.c:187: if((joypad_current & J_RIGHT) && !(joypad_previous & J_RIGHT)){
      000410 FArCCr00         [16]  971 	ld	a, (#_joypad_current)
      000413 0F               [ 4]  972 	rrca
      000414 30 20            [12]  973 	jr	NC, 00109$
      000416 FArCDr00         [16]  974 	ld	a, (#_joypad_previous)
      000419 0F               [ 4]  975 	rrca
      00041A 38 1A            [12]  976 	jr	C, 00109$
                                    977 ;src/main.c:188: player_dir++;
      00041C 21rCBr00         [12]  978 	ld	hl, #_player_dir
      00041F 34               [12]  979 	inc	(hl)
                                    980 ;src/main.c:189: if(player_dir==4){
      000420 7E               [ 8]  981 	ld	a, (hl)
      000421 D6 04            [ 8]  982 	sub	a, #0x04
      000423 20 05            [12]  983 	jr	NZ, 00107$
                                    984 ;src/main.c:190: player_dir=north;
      000425 21rCBr00         [12]  985 	ld	hl, #_player_dir
      000428 36 00            [12]  986 	ld	(hl), #0x00
      00042A                        987 00107$:
                                    988 ;src/main.c:192: update_dng(test_dungeon,15,15);
      00042A 3E 0F            [ 8]  989 	ld	a, #0x0f
      00042C F5               [16]  990 	push	af
      00042D 33               [ 8]  991 	inc	sp
      00042E 3E 0F            [ 8]  992 	ld	a, #0x0f
      000430 11r71r01         [12]  993 	ld	de, #_test_dungeon
      000433 CDr52r02         [24]  994 	call	_update_dng
      000436                        995 00109$:
                                    996 ;src/main.c:195: if((joypad_current & J_UP) && !(joypad_previous & J_UP)){
      000436 FArCCr00         [16]  997 	ld	a, (#_joypad_current)
      000439 CB 57            [ 8]  998 	bit	2, a
      00043B CAr6Cr05         [16]  999 	jp	Z,00129$
      00043E FArCDr00         [16] 1000 	ld	a, (#_joypad_previous)
      000441 CB 57            [ 8] 1001 	bit	2, a
      000443 C2r6Cr05         [16] 1002 	jp	NZ,00129$
                                   1003 ;src/main.c:198: if(return_value(test_dungeon,15,15,player_x,player_y-1)==0x00||return_value(test_dungeon,15,15,player_x,player_y-1)==0x01){
      000446 21r01r00         [12] 1004 	ld	hl, #_player_y
      000449 5E               [ 8] 1005 	ld	e, (hl)
                                   1006 ;src/main.c:196: switch(player_dir){
      00044A FArCBr00         [16] 1007 	ld	a, (#_player_dir)
      00044D B7               [ 4] 1008 	or	a, a
      00044E 28 1A            [12] 1009 	jr	Z, 00111$
                                   1010 ;src/main.c:204: if(return_value(test_dungeon,15,15,player_x+1,player_y)==0x00||return_value(test_dungeon,15,15,player_x+1,player_y)==0x01){
      000450 21r00r00         [12] 1011 	ld	hl, #_player_x
      000453 4E               [ 8] 1012 	ld	c, (hl)
                                   1013 ;src/main.c:196: switch(player_dir){
      000454 FArCBr00         [16] 1014 	ld	a, (#_player_dir)
      000457 3D               [ 4] 1015 	dec	a
      000458 28 52            [12] 1016 	jr	Z, 00115$
      00045A FArCBr00         [16] 1017 	ld	a,(#_player_dir)
      00045D FE 02            [ 8] 1018 	cp	a,#0x02
      00045F CArEEr04         [16] 1019 	jp	Z,00119$
      000462 D6 03            [ 8] 1020 	sub	a, #0x03
      000464 CAr2Er05         [16] 1021 	jp	Z,00123$
      000467 C3r6Cr05         [16] 1022 	jp	00129$
                                   1023 ;src/main.c:197: case north:
      00046A                       1024 00111$:
                                   1025 ;src/main.c:198: if(return_value(test_dungeon,15,15,player_x,player_y-1)==0x00||return_value(test_dungeon,15,15,player_x,player_y-1)==0x01){
      00046A 43               [ 4] 1026 	ld	b, e
      00046B 05               [ 4] 1027 	dec	b
      00046C C5               [16] 1028 	push	bc
      00046D 33               [ 8] 1029 	inc	sp
      00046E FAr00r00         [16] 1030 	ld	a, (#_player_x)
      000471 67               [ 4] 1031 	ld	h, a
      000472 2E 0F            [ 8] 1032 	ld	l, #0x0f
      000474 E5               [16] 1033 	push	hl
      000475 3E 0F            [ 8] 1034 	ld	a, #0x0f
      000477 11r71r01         [12] 1035 	ld	de, #_test_dungeon
      00047A CDr00r00         [24] 1036 	call	_return_value
      00047D B7               [ 4] 1037 	or	a, a
      00047E 28 19            [12] 1038 	jr	Z, 00112$
      000480 FAr01r00         [16] 1039 	ld	a, (#_player_y)
      000483 3D               [ 4] 1040 	dec	a
      000484 F5               [16] 1041 	push	af
      000485 33               [ 8] 1042 	inc	sp
      000486 FAr00r00         [16] 1043 	ld	a, (#_player_x)
      000489 67               [ 4] 1044 	ld	h, a
      00048A 2E 0F            [ 8] 1045 	ld	l, #0x0f
      00048C E5               [16] 1046 	push	hl
      00048D 3E 0F            [ 8] 1047 	ld	a, #0x0f
      00048F 11r71r01         [12] 1048 	ld	de, #_test_dungeon
      000492 CDr00r00         [24] 1049 	call	_return_value
      000495 3D               [ 4] 1050 	dec	a
      000496 C2r6Cr05         [16] 1051 	jp	NZ,00129$
      000499                       1052 00112$:
                                   1053 ;src/main.c:199: player_y--;
      000499 21r01r00         [12] 1054 	ld	hl, #_player_y
      00049C 35               [12] 1055 	dec	(hl)
                                   1056 ;src/main.c:200: update_dng(test_dungeon,15,15);
      00049D 3E 0F            [ 8] 1057 	ld	a, #0x0f
      00049F F5               [16] 1058 	push	af
      0004A0 33               [ 8] 1059 	inc	sp
      0004A1 3E 0F            [ 8] 1060 	ld	a, #0x0f
      0004A3 11r71r01         [12] 1061 	ld	de, #_test_dungeon
      0004A6 CDr52r02         [24] 1062 	call	_update_dng
                                   1063 ;src/main.c:202: break;
      0004A9 C3r6Cr05         [16] 1064 	jp	00129$
                                   1065 ;src/main.c:203: case east:
      0004AC                       1066 00115$:
                                   1067 ;src/main.c:204: if(return_value(test_dungeon,15,15,player_x+1,player_y)==0x00||return_value(test_dungeon,15,15,player_x+1,player_y)==0x01){
      0004AC 0C               [ 4] 1068 	inc	c
      0004AD FAr01r00         [16] 1069 	ld	a, (#_player_y)
      0004B0 F5               [16] 1070 	push	af
      0004B1 33               [ 8] 1071 	inc	sp
      0004B2 61               [ 4] 1072 	ld	h, c
      0004B3 2E 0F            [ 8] 1073 	ld	l, #0x0f
      0004B5 E5               [16] 1074 	push	hl
      0004B6 3E 0F            [ 8] 1075 	ld	a, #0x0f
      0004B8 11r71r01         [12] 1076 	ld	de, #_test_dungeon
      0004BB CDr00r00         [24] 1077 	call	_return_value
      0004BE B7               [ 4] 1078 	or	a, a
      0004BF 28 1A            [12] 1079 	jr	Z, 00116$
      0004C1 FAr00r00         [16] 1080 	ld	a, (#_player_x)
      0004C4 3C               [ 4] 1081 	inc	a
      0004C5 21r01r00         [12] 1082 	ld	hl, #_player_y
      0004C8 66               [ 8] 1083 	ld	h, (hl)
                                   1084 ;	spillPairReg hl
                                   1085 ;	spillPairReg hl
      0004C9 E5               [16] 1086 	push	hl
      0004CA 33               [ 8] 1087 	inc	sp
      0004CB 67               [ 4] 1088 	ld	h, a
      0004CC 2E 0F            [ 8] 1089 	ld	l, #0x0f
      0004CE E5               [16] 1090 	push	hl
      0004CF 3E 0F            [ 8] 1091 	ld	a, #0x0f
      0004D1 11r71r01         [12] 1092 	ld	de, #_test_dungeon
      0004D4 CDr00r00         [24] 1093 	call	_return_value
      0004D7 3D               [ 4] 1094 	dec	a
      0004D8 C2r6Cr05         [16] 1095 	jp	NZ,00129$
      0004DB                       1096 00116$:
                                   1097 ;src/main.c:205: player_x++;
      0004DB 21r00r00         [12] 1098 	ld	hl, #_player_x
      0004DE 34               [12] 1099 	inc	(hl)
                                   1100 ;src/main.c:206: update_dng(test_dungeon,15,15);
      0004DF 3E 0F            [ 8] 1101 	ld	a, #0x0f
      0004E1 F5               [16] 1102 	push	af
      0004E2 33               [ 8] 1103 	inc	sp
      0004E3 3E 0F            [ 8] 1104 	ld	a, #0x0f
      0004E5 11r71r01         [12] 1105 	ld	de, #_test_dungeon
      0004E8 CDr52r02         [24] 1106 	call	_update_dng
                                   1107 ;src/main.c:208: break;
      0004EB C3r6Cr05         [16] 1108 	jp	00129$
                                   1109 ;src/main.c:209: case south:
      0004EE                       1110 00119$:
                                   1111 ;src/main.c:210: if(return_value(test_dungeon,15,15,player_x,player_y+1)==0x00||return_value(test_dungeon,15,15,player_x,player_y+1)==0x01){
      0004EE 43               [ 4] 1112 	ld	b, e
      0004EF 04               [ 4] 1113 	inc	b
      0004F0 C5               [16] 1114 	push	bc
      0004F1 33               [ 8] 1115 	inc	sp
      0004F2 FAr00r00         [16] 1116 	ld	a, (#_player_x)
      0004F5 67               [ 4] 1117 	ld	h, a
      0004F6 2E 0F            [ 8] 1118 	ld	l, #0x0f
      0004F8 E5               [16] 1119 	push	hl
      0004F9 3E 0F            [ 8] 1120 	ld	a, #0x0f
      0004FB 11r71r01         [12] 1121 	ld	de, #_test_dungeon
      0004FE CDr00r00         [24] 1122 	call	_return_value
      000501 B7               [ 4] 1123 	or	a, a
      000502 28 18            [12] 1124 	jr	Z, 00120$
      000504 FAr01r00         [16] 1125 	ld	a, (#_player_y)
      000507 3C               [ 4] 1126 	inc	a
      000508 F5               [16] 1127 	push	af
      000509 33               [ 8] 1128 	inc	sp
      00050A FAr00r00         [16] 1129 	ld	a, (#_player_x)
      00050D 67               [ 4] 1130 	ld	h, a
      00050E 2E 0F            [ 8] 1131 	ld	l, #0x0f
      000510 E5               [16] 1132 	push	hl
      000511 3E 0F            [ 8] 1133 	ld	a, #0x0f
      000513 11r71r01         [12] 1134 	ld	de, #_test_dungeon
      000516 CDr00r00         [24] 1135 	call	_return_value
      000519 3D               [ 4] 1136 	dec	a
      00051A 20 50            [12] 1137 	jr	NZ, 00129$
      00051C                       1138 00120$:
                                   1139 ;src/main.c:211: player_y++;
      00051C 21r01r00         [12] 1140 	ld	hl, #_player_y
      00051F 34               [12] 1141 	inc	(hl)
                                   1142 ;src/main.c:212: update_dng(test_dungeon,15,15);
      000520 3E 0F            [ 8] 1143 	ld	a, #0x0f
      000522 F5               [16] 1144 	push	af
      000523 33               [ 8] 1145 	inc	sp
      000524 3E 0F            [ 8] 1146 	ld	a, #0x0f
      000526 11r71r01         [12] 1147 	ld	de, #_test_dungeon
      000529 CDr52r02         [24] 1148 	call	_update_dng
                                   1149 ;src/main.c:214: break;
      00052C 18 3E            [12] 1150 	jr	00129$
                                   1151 ;src/main.c:215: case west:
      00052E                       1152 00123$:
                                   1153 ;src/main.c:216: if(return_value(test_dungeon,15,15,player_x-1,player_y)==0x00||return_value(test_dungeon,15,15,player_x-1,player_y)==0x01){
      00052E 0D               [ 4] 1154 	dec	c
      00052F FAr01r00         [16] 1155 	ld	a, (#_player_y)
      000532 F5               [16] 1156 	push	af
      000533 33               [ 8] 1157 	inc	sp
      000534 61               [ 4] 1158 	ld	h, c
      000535 2E 0F            [ 8] 1159 	ld	l, #0x0f
      000537 E5               [16] 1160 	push	hl
      000538 3E 0F            [ 8] 1161 	ld	a, #0x0f
      00053A 11r71r01         [12] 1162 	ld	de, #_test_dungeon
      00053D CDr00r00         [24] 1163 	call	_return_value
      000540 B7               [ 4] 1164 	or	a, a
      000541 28 19            [12] 1165 	jr	Z, 00124$
      000543 FAr00r00         [16] 1166 	ld	a, (#_player_x)
      000546 3D               [ 4] 1167 	dec	a
      000547 21r01r00         [12] 1168 	ld	hl, #_player_y
      00054A 66               [ 8] 1169 	ld	h, (hl)
                                   1170 ;	spillPairReg hl
                                   1171 ;	spillPairReg hl
      00054B E5               [16] 1172 	push	hl
      00054C 33               [ 8] 1173 	inc	sp
      00054D 67               [ 4] 1174 	ld	h, a
      00054E 2E 0F            [ 8] 1175 	ld	l, #0x0f
      000550 E5               [16] 1176 	push	hl
      000551 3E 0F            [ 8] 1177 	ld	a, #0x0f
      000553 11r71r01         [12] 1178 	ld	de, #_test_dungeon
      000556 CDr00r00         [24] 1179 	call	_return_value
      000559 3D               [ 4] 1180 	dec	a
      00055A 20 10            [12] 1181 	jr	NZ, 00129$
      00055C                       1182 00124$:
                                   1183 ;src/main.c:217: player_x--;
      00055C 21r00r00         [12] 1184 	ld	hl, #_player_x
      00055F 35               [12] 1185 	dec	(hl)
                                   1186 ;src/main.c:218: update_dng(test_dungeon,15,15);
      000560 3E 0F            [ 8] 1187 	ld	a, #0x0f
      000562 F5               [16] 1188 	push	af
      000563 33               [ 8] 1189 	inc	sp
      000564 3E 0F            [ 8] 1190 	ld	a, #0x0f
      000566 11r71r01         [12] 1191 	ld	de, #_test_dungeon
      000569 CDr52r02         [24] 1192 	call	_update_dng
                                   1193 ;src/main.c:221: }
      00056C                       1194 00129$:
                                   1195 ;src/main.c:223: if((joypad_current & J_DOWN) && !(joypad_previous & J_DOWN)){
      00056C FArCCr00         [16] 1196 	ld	a, (#_joypad_current)
      00056F CB 5F            [ 8] 1197 	bit	3, a
      000571 C8               [20] 1198 	ret	Z
      000572 FArCDr00         [16] 1199 	ld	a, (#_joypad_previous)
      000575 CB 5F            [ 8] 1200 	bit	3, a
      000577 C0               [20] 1201 	ret	NZ
                                   1202 ;src/main.c:198: if(return_value(test_dungeon,15,15,player_x,player_y-1)==0x00||return_value(test_dungeon,15,15,player_x,player_y-1)==0x01){
      000578 21r01r00         [12] 1203 	ld	hl, #_player_y
      00057B 5E               [ 8] 1204 	ld	e, (hl)
                                   1205 ;src/main.c:224: switch(player_dir){
      00057C FArCBr00         [16] 1206 	ld	a, (#_player_dir)
      00057F B7               [ 4] 1207 	or	a, a
      000580 28 18            [12] 1208 	jr	Z, 00131$
                                   1209 ;src/main.c:204: if(return_value(test_dungeon,15,15,player_x+1,player_y)==0x00||return_value(test_dungeon,15,15,player_x+1,player_y)==0x01){
      000582 21r00r00         [12] 1210 	ld	hl, #_player_x
      000585 4E               [ 8] 1211 	ld	c, (hl)
                                   1212 ;src/main.c:224: switch(player_dir){
      000586 FArCBr00         [16] 1213 	ld	a, (#_player_dir)
      000589 3D               [ 4] 1214 	dec	a
      00058A 28 4C            [12] 1215 	jr	Z, 00135$
      00058C FArCBr00         [16] 1216 	ld	a,(#_player_dir)
      00058F FE 02            [ 8] 1217 	cp	a,#0x02
      000591 CAr16r06         [16] 1218 	jp	Z,00139$
      000594 D6 03            [ 8] 1219 	sub	a, #0x03
      000596 CAr54r06         [16] 1220 	jp	Z,00143$
      000599 C9               [16] 1221 	ret
                                   1222 ;src/main.c:225: case north:
      00059A                       1223 00131$:
                                   1224 ;src/main.c:226: if(return_value(test_dungeon,15,15,player_x,player_y+1)==0x00||return_value(test_dungeon,15,15,player_x,player_y+1)==0x01){
      00059A 43               [ 4] 1225 	ld	b, e
      00059B 04               [ 4] 1226 	inc	b
      00059C C5               [16] 1227 	push	bc
      00059D 33               [ 8] 1228 	inc	sp
      00059E FAr00r00         [16] 1229 	ld	a, (#_player_x)
      0005A1 67               [ 4] 1230 	ld	h, a
      0005A2 2E 0F            [ 8] 1231 	ld	l, #0x0f
      0005A4 E5               [16] 1232 	push	hl
      0005A5 3E 0F            [ 8] 1233 	ld	a, #0x0f
      0005A7 11r71r01         [12] 1234 	ld	de, #_test_dungeon
      0005AA CDr00r00         [24] 1235 	call	_return_value
      0005AD B7               [ 4] 1236 	or	a, a
      0005AE 28 17            [12] 1237 	jr	Z, 00132$
      0005B0 FAr01r00         [16] 1238 	ld	a, (#_player_y)
      0005B3 3C               [ 4] 1239 	inc	a
      0005B4 F5               [16] 1240 	push	af
      0005B5 33               [ 8] 1241 	inc	sp
      0005B6 FAr00r00         [16] 1242 	ld	a, (#_player_x)
      0005B9 67               [ 4] 1243 	ld	h, a
      0005BA 2E 0F            [ 8] 1244 	ld	l, #0x0f
      0005BC E5               [16] 1245 	push	hl
      0005BD 3E 0F            [ 8] 1246 	ld	a, #0x0f
      0005BF 11r71r01         [12] 1247 	ld	de, #_test_dungeon
      0005C2 CDr00r00         [24] 1248 	call	_return_value
      0005C5 3D               [ 4] 1249 	dec	a
      0005C6 C0               [20] 1250 	ret	NZ
      0005C7                       1251 00132$:
                                   1252 ;src/main.c:227: player_y++;
      0005C7 21r01r00         [12] 1253 	ld	hl, #_player_y
      0005CA 34               [12] 1254 	inc	(hl)
                                   1255 ;src/main.c:228: update_dng(test_dungeon,15,15);
      0005CB 3E 0F            [ 8] 1256 	ld	a, #0x0f
      0005CD F5               [16] 1257 	push	af
      0005CE 33               [ 8] 1258 	inc	sp
      0005CF 3E 0F            [ 8] 1259 	ld	a, #0x0f
      0005D1 11r71r01         [12] 1260 	ld	de, #_test_dungeon
      0005D4 CDr52r02         [24] 1261 	call	_update_dng
                                   1262 ;src/main.c:230: break;
      0005D7 C9               [16] 1263 	ret
                                   1264 ;src/main.c:231: case east:
      0005D8                       1265 00135$:
                                   1266 ;src/main.c:232: if(return_value(test_dungeon,15,15,player_x-1,player_y)==0x00||return_value(test_dungeon,15,15,player_x-1,player_y)==0x01){
      0005D8 0D               [ 4] 1267 	dec	c
      0005D9 FAr01r00         [16] 1268 	ld	a, (#_player_y)
      0005DC F5               [16] 1269 	push	af
      0005DD 33               [ 8] 1270 	inc	sp
      0005DE 61               [ 4] 1271 	ld	h, c
      0005DF 2E 0F            [ 8] 1272 	ld	l, #0x0f
      0005E1 E5               [16] 1273 	push	hl
      0005E2 3E 0F            [ 8] 1274 	ld	a, #0x0f
      0005E4 11r71r01         [12] 1275 	ld	de, #_test_dungeon
      0005E7 CDr00r00         [24] 1276 	call	_return_value
      0005EA B7               [ 4] 1277 	or	a, a
      0005EB 28 18            [12] 1278 	jr	Z, 00136$
      0005ED FAr00r00         [16] 1279 	ld	a, (#_player_x)
      0005F0 3D               [ 4] 1280 	dec	a
      0005F1 21r01r00         [12] 1281 	ld	hl, #_player_y
      0005F4 66               [ 8] 1282 	ld	h, (hl)
                                   1283 ;	spillPairReg hl
                                   1284 ;	spillPairReg hl
      0005F5 E5               [16] 1285 	push	hl
      0005F6 33               [ 8] 1286 	inc	sp
      0005F7 67               [ 4] 1287 	ld	h, a
      0005F8 2E 0F            [ 8] 1288 	ld	l, #0x0f
      0005FA E5               [16] 1289 	push	hl
      0005FB 3E 0F            [ 8] 1290 	ld	a, #0x0f
      0005FD 11r71r01         [12] 1291 	ld	de, #_test_dungeon
      000600 CDr00r00         [24] 1292 	call	_return_value
      000603 3D               [ 4] 1293 	dec	a
      000604 C0               [20] 1294 	ret	NZ
      000605                       1295 00136$:
                                   1296 ;src/main.c:233: player_x--;
      000605 21r00r00         [12] 1297 	ld	hl, #_player_x
      000608 35               [12] 1298 	dec	(hl)
                                   1299 ;src/main.c:234: update_dng(test_dungeon,15,15);
      000609 3E 0F            [ 8] 1300 	ld	a, #0x0f
      00060B F5               [16] 1301 	push	af
      00060C 33               [ 8] 1302 	inc	sp
      00060D 3E 0F            [ 8] 1303 	ld	a, #0x0f
      00060F 11r71r01         [12] 1304 	ld	de, #_test_dungeon
      000612 CDr52r02         [24] 1305 	call	_update_dng
                                   1306 ;src/main.c:236: break;
      000615 C9               [16] 1307 	ret
                                   1308 ;src/main.c:237: case south:
      000616                       1309 00139$:
                                   1310 ;src/main.c:238: if(return_value(test_dungeon,15,15,player_x,player_y-1)==0x00||return_value(test_dungeon,15,15,player_x,player_y-1)==0x01){
      000616 43               [ 4] 1311 	ld	b, e
      000617 05               [ 4] 1312 	dec	b
      000618 C5               [16] 1313 	push	bc
      000619 33               [ 8] 1314 	inc	sp
      00061A FAr00r00         [16] 1315 	ld	a, (#_player_x)
      00061D 67               [ 4] 1316 	ld	h, a
      00061E 2E 0F            [ 8] 1317 	ld	l, #0x0f
      000620 E5               [16] 1318 	push	hl
      000621 3E 0F            [ 8] 1319 	ld	a, #0x0f
      000623 11r71r01         [12] 1320 	ld	de, #_test_dungeon
      000626 CDr00r00         [24] 1321 	call	_return_value
      000629 B7               [ 4] 1322 	or	a, a
      00062A 28 17            [12] 1323 	jr	Z, 00140$
      00062C FAr01r00         [16] 1324 	ld	a, (#_player_y)
      00062F 3D               [ 4] 1325 	dec	a
      000630 F5               [16] 1326 	push	af
      000631 33               [ 8] 1327 	inc	sp
      000632 FAr00r00         [16] 1328 	ld	a, (#_player_x)
      000635 67               [ 4] 1329 	ld	h, a
      000636 2E 0F            [ 8] 1330 	ld	l, #0x0f
      000638 E5               [16] 1331 	push	hl
      000639 3E 0F            [ 8] 1332 	ld	a, #0x0f
      00063B 11r71r01         [12] 1333 	ld	de, #_test_dungeon
      00063E CDr00r00         [24] 1334 	call	_return_value
      000641 3D               [ 4] 1335 	dec	a
      000642 C0               [20] 1336 	ret	NZ
      000643                       1337 00140$:
                                   1338 ;src/main.c:239: player_y--;
      000643 21r01r00         [12] 1339 	ld	hl, #_player_y
      000646 35               [12] 1340 	dec	(hl)
                                   1341 ;src/main.c:240: update_dng(test_dungeon,15,15);
      000647 3E 0F            [ 8] 1342 	ld	a, #0x0f
      000649 F5               [16] 1343 	push	af
      00064A 33               [ 8] 1344 	inc	sp
      00064B 3E 0F            [ 8] 1345 	ld	a, #0x0f
      00064D 11r71r01         [12] 1346 	ld	de, #_test_dungeon
      000650 CDr52r02         [24] 1347 	call	_update_dng
                                   1348 ;src/main.c:242: break;
      000653 C9               [16] 1349 	ret
                                   1350 ;src/main.c:243: case west:
      000654                       1351 00143$:
                                   1352 ;src/main.c:244: if(return_value(test_dungeon,15,15,player_x+1,player_y)==0x00||return_value(test_dungeon,15,15,player_x+1,player_y)==0x01){
      000654 0C               [ 4] 1353 	inc	c
      000655 FAr01r00         [16] 1354 	ld	a, (#_player_y)
      000658 F5               [16] 1355 	push	af
      000659 33               [ 8] 1356 	inc	sp
      00065A 61               [ 4] 1357 	ld	h, c
      00065B 2E 0F            [ 8] 1358 	ld	l, #0x0f
      00065D E5               [16] 1359 	push	hl
      00065E 3E 0F            [ 8] 1360 	ld	a, #0x0f
      000660 11r71r01         [12] 1361 	ld	de, #_test_dungeon
      000663 CDr00r00         [24] 1362 	call	_return_value
      000666 B7               [ 4] 1363 	or	a, a
      000667 28 18            [12] 1364 	jr	Z, 00144$
      000669 FAr00r00         [16] 1365 	ld	a, (#_player_x)
      00066C 3C               [ 4] 1366 	inc	a
      00066D 21r01r00         [12] 1367 	ld	hl, #_player_y
      000670 66               [ 8] 1368 	ld	h, (hl)
                                   1369 ;	spillPairReg hl
                                   1370 ;	spillPairReg hl
      000671 E5               [16] 1371 	push	hl
      000672 33               [ 8] 1372 	inc	sp
      000673 67               [ 4] 1373 	ld	h, a
      000674 2E 0F            [ 8] 1374 	ld	l, #0x0f
      000676 E5               [16] 1375 	push	hl
      000677 3E 0F            [ 8] 1376 	ld	a, #0x0f
      000679 11r71r01         [12] 1377 	ld	de, #_test_dungeon
      00067C CDr00r00         [24] 1378 	call	_return_value
      00067F 3D               [ 4] 1379 	dec	a
      000680 C0               [20] 1380 	ret	NZ
      000681                       1381 00144$:
                                   1382 ;src/main.c:245: player_x++;
      000681 21r00r00         [12] 1383 	ld	hl, #_player_x
      000684 34               [12] 1384 	inc	(hl)
                                   1385 ;src/main.c:246: update_dng(test_dungeon,15,15);
      000685 3E 0F            [ 8] 1386 	ld	a, #0x0f
      000687 F5               [16] 1387 	push	af
      000688 33               [ 8] 1388 	inc	sp
      000689 3E 0F            [ 8] 1389 	ld	a, #0x0f
      00068B 11r71r01         [12] 1390 	ld	de, #_test_dungeon
      00068E CDr52r02         [24] 1391 	call	_update_dng
                                   1392 ;src/main.c:249: }
                                   1393 ;src/main.c:251: }
      000691 C9               [16] 1394 	ret
                                   1395 ;src/main.c:253: void main(void)
                                   1396 ;	---------------------------------
                                   1397 ; Function main
                                   1398 ; ---------------------------------
      000692                       1399 _main::
                                   1400 ;src/main.c:257: init_dungeon(test_dungeon, 15, 15);
      000692 3E 0F            [ 8] 1401 	ld	a, #0x0f
      000694 F5               [16] 1402 	push	af
      000695 33               [ 8] 1403 	inc	sp
      000696 3E 0F            [ 8] 1404 	ld	a, #0x0f
      000698 11r71r01         [12] 1405 	ld	de, #_test_dungeon
      00069B CDr00r00         [24] 1406 	call	_init_dungeon
                                   1407 ;src/main.c:258: init_dng_UI();
      00069E CDrB8r02         [24] 1408 	call	_init_dng_UI
                                   1409 ;src/main.c:259: update_dng(test_dungeon,15,15);
      0006A1 3E 0F            [ 8] 1410 	ld	a, #0x0f
      0006A3 F5               [16] 1411 	push	af
      0006A4 33               [ 8] 1412 	inc	sp
      0006A5 3E 0F            [ 8] 1413 	ld	a, #0x0f
      0006A7 11r71r01         [12] 1414 	ld	de, #_test_dungeon
      0006AA CDr52r02         [24] 1415 	call	_update_dng
                                   1416 ;src/main.c:260: set_sprite_data(0,26,UI_tiles);
      0006AD 11r00r00         [12] 1417 	ld	de, #_UI_tiles
      0006B0 D5               [16] 1418 	push	de
      0006B1 21 00 1A         [12] 1419 	ld	hl, #0x1a00
      0006B4 E5               [16] 1420 	push	hl
      0006B5 CDr00r00         [24] 1421 	call	_set_sprite_data
      0006B8 E8 04            [16] 1422 	add	sp, #4
                                   1423 ;src/main.c:261: set_sprite_tile(0,player_dir);
      0006BA 21rCBr00         [12] 1424 	ld	hl, #_player_dir
      0006BD 4E               [ 8] 1425 	ld	c, (hl)
                                   1426 ;../gbdk/include/gb/gb.h:1602: shadow_OAM[nb].tile=tile;
      0006BE 21r02r00         [12] 1427 	ld	hl, #(_shadow_OAM + 2)
      0006C1 71               [ 8] 1428 	ld	(hl), c
                                   1429 ;src/main.c:262: return_letter(0x2F);
      0006C2 3E 2F            [ 8] 1430 	ld	a, #0x2f
      0006C4 CDr00r00         [24] 1431 	call	_return_letter
                                   1432 ;src/main.c:264: SHOW_SPRITES;
      0006C7 F0r00            [12] 1433 	ldh	a, (_LCDC_REG + 0)
      0006C9 F6 02            [ 8] 1434 	or	a, #0x02
      0006CB E0r00            [12] 1435 	ldh	(_LCDC_REG + 0), a
                                   1436 ;src/main.c:266: while(1) {
      0006CD                       1437 00102$:
                                   1438 ;src/main.c:286: wait_vbl_done();
      0006CD CDr00r00         [24] 1439 	call	_wait_vbl_done
                                   1440 ;src/main.c:288: }
      0006D0 18 FB            [12] 1441 	jr	00102$
                                   1442 	.area _CODE
                                   1443 	.area _INITIALIZER
      000000                       1444 __xinit__player_x:
      000000 00                    1445 	.db #0x00	; 0
      000001                       1446 __xinit__player_y:
      000001 00                    1447 	.db #0x00	; 0
      000002                       1448 __xinit__global_state:
      000002 01                    1449 	.db #0x01	; 1
      000003                       1450 __xinit__inventory:
      000003 00 00                 1451 	.dw #0x0000
      000005 00                    1452 	.db 0x00
      000006 00                    1453 	.db 0x00
      000007 00                    1454 	.db 0x00
      000008 00                    1455 	.db 0x00
      000009 00                    1456 	.db 0x00
      00000A 00                    1457 	.db 0x00
      00000B 00                    1458 	.db 0x00
      00000C 00                    1459 	.db 0x00
      00000D 00                    1460 	.db 0x00
      00000E 00                    1461 	.db 0x00
      00000F 00                    1462 	.db 0x00
      000010 00                    1463 	.db 0x00
      000011 00                    1464 	.db 0x00
      000012 00                    1465 	.db 0x00
      000013 00                    1466 	.db 0x00
      000014 00                    1467 	.db 0x00
      000015 00                    1468 	.db 0x00
      000016 00                    1469 	.db 0x00
      000017 00                    1470 	.db 0x00
      000018 00                    1471 	.db 0x00
      000019 00                    1472 	.db 0x00
      00001A 00                    1473 	.db 0x00
      00001B 00                    1474 	.db 0x00
      00001C 00                    1475 	.db 0x00
      00001D 00                    1476 	.db 0x00
      00001E 00                    1477 	.db 0x00
      00001F 00                    1478 	.db 0x00
      000020 00                    1479 	.db 0x00
      000021 00                    1480 	.db 0x00
      000022 00                    1481 	.db 0x00
      000023 00                    1482 	.db 0x00
      000024 00                    1483 	.db 0x00
      000025 00                    1484 	.db 0x00
      000026 00                    1485 	.db 0x00
      000027 00                    1486 	.db 0x00
      000028 00                    1487 	.db 0x00
      000029 00                    1488 	.db 0x00
      00002A 00                    1489 	.db 0x00
      00002B 00                    1490 	.db 0x00
      00002C 00                    1491 	.db 0x00
      00002D 00                    1492 	.db 0x00
      00002E 00                    1493 	.db 0x00
      00002F 00                    1494 	.db 0x00
      000030 00                    1495 	.db 0x00
      000031 00                    1496 	.db 0x00
      000032 00                    1497 	.db 0x00
      000033 00                    1498 	.db 0x00
      000034 00                    1499 	.db 0x00
      000035 00                    1500 	.db 0x00
      000036 00                    1501 	.db 0x00
      000037 00                    1502 	.db 0x00
      000038 00                    1503 	.db 0x00
      000039 00                    1504 	.db 0x00
      00003A 00                    1505 	.db 0x00
      00003B 00                    1506 	.db 0x00
      00003C 00                    1507 	.db 0x00
      00003D 00                    1508 	.db 0x00
      00003E 00                    1509 	.db 0x00
      00003F 00                    1510 	.db 0x00
      000040 00                    1511 	.db 0x00
      000041 00                    1512 	.db 0x00
      000042 00                    1513 	.db 0x00
      000043 00                    1514 	.db 0x00
      000044 00                    1515 	.db 0x00
      000045 00                    1516 	.db 0x00
      000046 00                    1517 	.db 0x00
      000047 00                    1518 	.db 0x00
      000048 00                    1519 	.db 0x00
      000049 00                    1520 	.db 0x00
      00004A 00                    1521 	.db 0x00
      00004B 00                    1522 	.db 0x00
      00004C 00                    1523 	.db 0x00
      00004D 00                    1524 	.db 0x00
      00004E 00                    1525 	.db 0x00
      00004F 00                    1526 	.db 0x00
      000050 00                    1527 	.db 0x00
      000051 00                    1528 	.db 0x00
      000052 00                    1529 	.db 0x00
      000053 00                    1530 	.db 0x00
      000054 00                    1531 	.db 0x00
      000055 00                    1532 	.db 0x00
      000056 00                    1533 	.db 0x00
      000057 00                    1534 	.db 0x00
      000058 00                    1535 	.db 0x00
      000059 00                    1536 	.db 0x00
      00005A 00                    1537 	.db 0x00
      00005B 00                    1538 	.db 0x00
      00005C 00                    1539 	.db 0x00
      00005D 00                    1540 	.db 0x00
      00005E 00                    1541 	.db 0x00
      00005F 00                    1542 	.db 0x00
      000060 00                    1543 	.db 0x00
      000061 00                    1544 	.db 0x00
      000062 00                    1545 	.db 0x00
      000063 00                    1546 	.db 0x00
      000064 00                    1547 	.db 0x00
      000065 00                    1548 	.db 0x00
      000066 00                    1549 	.db 0x00
      000067 00                    1550 	.db 0x00
      000068 00                    1551 	.db 0x00
      000069 00                    1552 	.db 0x00
      00006A 00                    1553 	.db 0x00
      00006B 00                    1554 	.db 0x00
      00006C 00                    1555 	.db 0x00
      00006D 00                    1556 	.db 0x00
      00006E 00                    1557 	.db 0x00
      00006F 00                    1558 	.db 0x00
      000070 00                    1559 	.db 0x00
      000071 00                    1560 	.db 0x00
      000072 00                    1561 	.db 0x00
      000073 00                    1562 	.db 0x00
      000074 00                    1563 	.db 0x00
      000075 00                    1564 	.db 0x00
      000076 00                    1565 	.db 0x00
      000077 00                    1566 	.db 0x00
      000078 00                    1567 	.db 0x00
      000079 00                    1568 	.db 0x00
      00007A 00                    1569 	.db 0x00
      00007B 00                    1570 	.db 0x00
      00007C 00                    1571 	.db 0x00
      00007D 00                    1572 	.db 0x00
      00007E 00                    1573 	.db 0x00
      00007F 00                    1574 	.db 0x00
      000080 00                    1575 	.db 0x00
      000081 00                    1576 	.db 0x00
      000082 00                    1577 	.db 0x00
      000083 00                    1578 	.db 0x00
      000084 00                    1579 	.db 0x00
      000085 00                    1580 	.db 0x00
      000086 00                    1581 	.db 0x00
      000087 00                    1582 	.db 0x00
      000088 00                    1583 	.db 0x00
      000089 00                    1584 	.db 0x00
      00008A 00                    1585 	.db 0x00
      00008B 00                    1586 	.db 0x00
      00008C 00                    1587 	.db 0x00
      00008D 00                    1588 	.db 0x00
      00008E 00                    1589 	.db 0x00
      00008F 00                    1590 	.db 0x00
      000090 00                    1591 	.db 0x00
      000091 00                    1592 	.db 0x00
      000092 00                    1593 	.db 0x00
      000093 00                    1594 	.db 0x00
      000094 00                    1595 	.db 0x00
      000095 00                    1596 	.db 0x00
      000096 00                    1597 	.db 0x00
      000097 00                    1598 	.db 0x00
      000098 00                    1599 	.db 0x00
      000099 00                    1600 	.db 0x00
      00009A 00                    1601 	.db 0x00
      00009B 00                    1602 	.db 0x00
      00009C 00                    1603 	.db 0x00
      00009D 00                    1604 	.db 0x00
      00009E 00                    1605 	.db 0x00
      00009F 00                    1606 	.db 0x00
      0000A0 00                    1607 	.db 0x00
      0000A1 00                    1608 	.db 0x00
      0000A2 00                    1609 	.db 0x00
      0000A3 00                    1610 	.db 0x00
      0000A4 00                    1611 	.db 0x00
      0000A5 00                    1612 	.db 0x00
      0000A6 00                    1613 	.db 0x00
      0000A7 00                    1614 	.db 0x00
      0000A8 00                    1615 	.db 0x00
      0000A9 00                    1616 	.db 0x00
      0000AA 00                    1617 	.db 0x00
      0000AB 00                    1618 	.db 0x00
      0000AC 00                    1619 	.db 0x00
      0000AD 00                    1620 	.db 0x00
      0000AE 00                    1621 	.db 0x00
      0000AF 00                    1622 	.db 0x00
      0000B0 00                    1623 	.db 0x00
      0000B1 00                    1624 	.db 0x00
      0000B2 00                    1625 	.db 0x00
      0000B3 00                    1626 	.db 0x00
      0000B4 00                    1627 	.db 0x00
      0000B5 00                    1628 	.db 0x00
      0000B6 00                    1629 	.db 0x00
      0000B7 00                    1630 	.db 0x00
      0000B8 00                    1631 	.db 0x00
      0000B9 00                    1632 	.db 0x00
      0000BA 00                    1633 	.db 0x00
      0000BB 00                    1634 	.db 0x00
      0000BC 00                    1635 	.db 0x00
      0000BD 00                    1636 	.db 0x00
      0000BE 00                    1637 	.db 0x00
      0000BF 00                    1638 	.db 0x00
      0000C0 00                    1639 	.db 0x00
      0000C1 00                    1640 	.db 0x00
      0000C2 00                    1641 	.db 0x00
      0000C3 00                    1642 	.db 0x00
      0000C4 00                    1643 	.db 0x00
      0000C5 00                    1644 	.db 0x00
      0000C6 00                    1645 	.db 0x00
      0000C7 00                    1646 	.db 0x00
      0000C8 00                    1647 	.db 0x00
      0000C9 00                    1648 	.db 0x00
      0000CA 00                    1649 	.db 0x00
      0000CB                       1650 __xinit__player_dir:
      0000CB 00                    1651 	.db #0x00	; 0
      0000CC                       1652 __xinit__joypad_current:
      0000CC 00                    1653 	.db #0x00	; 0
      0000CD                       1654 __xinit__joypad_previous:
      0000CD 00                    1655 	.db #0x00	; 0
                                   1656 	.area _CABS (ABS)
