                                      1 ;--------------------------------------------------------
                                      2 ; File Created by SDCC : free open source ISO C Compiler 
                                      3 ; Version 4.2.2 #13350 (Linux)
                                      4 ;--------------------------------------------------------
                                      5 	.module main
                                      6 	.optsdcc -msm83
                                      7 	
                                      8 ;--------------------------------------------------------
                                      9 ; Public variables in this module
                                     10 ;--------------------------------------------------------
                                     11 	.globl _main
                                     12 	.globl _update_dng
                                     13 	.globl _init_gfx
                                     14 	.globl _check_r_walls_e
                                     15 	.globl _check_r_walls_w
                                     16 	.globl _check_r_walls_s
                                     17 	.globl _check_r_walls_n
                                     18 	.globl _check_l_walls_e
                                     19 	.globl _check_l_walls_w
                                     20 	.globl _check_l_walls_s
                                     21 	.globl _check_l_walls_n
                                     22 	.globl _check_m_walls
                                     23 	.globl _set_sprite_data
                                     24 	.globl _set_bkg_tiles
                                     25 	.globl _set_bkg_data
                                     26 	.globl _wait_vbl_done
                                     27 	.globl _joypad
                                     28 	.globl _test_dungeon
                                     29 	.globl _white_screen
                                     30 ;--------------------------------------------------------
                                     31 ; special function registers
                                     32 ;--------------------------------------------------------
                                     33 ;--------------------------------------------------------
                                     34 ; ram data
                                     35 ;--------------------------------------------------------
                                     36 	.area _DATA
                                     37 ;--------------------------------------------------------
                                     38 ; ram data
                                     39 ;--------------------------------------------------------
                                     40 	.area _INITIALIZED
      000000                         41 _player_x:
      000000                         42 	.ds 1
      000001                         43 _player_y:
      000001                         44 	.ds 1
      000002                         45 _global_state:
      000002                         46 	.ds 1
      000003                         47 _player_dir:
      000003                         48 	.ds 1
      000004                         49 _joypadCurrent:
      000004                         50 	.ds 1
      000005                         51 _joypadPrevious:
      000005                         52 	.ds 1
                                     53 ;--------------------------------------------------------
                                     54 ; absolute external ram data
                                     55 ;--------------------------------------------------------
                                     56 	.area _DABS (ABS)
                                     57 ;--------------------------------------------------------
                                     58 ; global & static initialisations
                                     59 ;--------------------------------------------------------
                                     60 	.area _HOME
                                     61 	.area _GSINIT
                                     62 	.area _GSFINAL
                                     63 	.area _GSINIT
                                     64 ;--------------------------------------------------------
                                     65 ; Home
                                     66 ;--------------------------------------------------------
                                     67 	.area _HOME
                                     68 	.area _HOME
                                     69 ;--------------------------------------------------------
                                     70 ; code
                                     71 ;--------------------------------------------------------
                                     72 	.area _CODE
                                     73 ;src/main.c:60: void init_gfx() {
                                     74 ;	---------------------------------
                                     75 ; Function init_gfx
                                     76 ; ---------------------------------
      000000                         77 _init_gfx::
                                     78 ;src/main.c:63: set_bkg_data(0,74,dng_tileset);
      000000 11r00r00         [12]   79 	ld	de, #_dng_tileset
      000003 D5               [16]   80 	push	de
      000004 21 00 4A         [12]   81 	ld	hl, #0x4a00
      000007 E5               [16]   82 	push	hl
      000008 CDr00r00         [24]   83 	call	_set_bkg_data
      00000B E8 04            [16]   84 	add	sp, #4
                                     85 ;src/main.c:65: for(uint8_t i = 0; i < 15; i++){
      00000D 0E 00            [ 8]   86 	ld	c, #0x00
      00000F                         87 00109$:
      00000F 79               [ 4]   88 	ld	a, c
      000010 D6 0F            [ 8]   89 	sub	a, #0x0f
      000012 30 2E            [12]   90 	jr	NC, 00104$
                                     91 ;src/main.c:66: for(uint8_t j = 0; j < 15; j++){
      000014 06 00            [ 8]   92 	ld	b, #0x00
      000016                         93 00106$:
      000016 78               [ 4]   94 	ld	a, b
      000017 D6 0F            [ 8]   95 	sub	a, #0x0f
      000019 30 24            [12]   96 	jr	NC, 00110$
                                     97 ;src/main.c:67: if(test_dungeon[i*15+j]==0x01){
      00001B 69               [ 4]   98 	ld	l, c
                                     99 ;	spillPairReg hl
                                    100 ;	spillPairReg hl
      00001C 26 00            [ 8]  101 	ld	h, #0x00
                                    102 ;	spillPairReg hl
                                    103 ;	spillPairReg hl
      00001E 5D               [ 4]  104 	ld	e, l
      00001F 54               [ 4]  105 	ld	d, h
      000020 29               [ 8]  106 	add	hl, hl
      000021 19               [ 8]  107 	add	hl, de
      000022 29               [ 8]  108 	add	hl, hl
      000023 19               [ 8]  109 	add	hl, de
      000024 29               [ 8]  110 	add	hl, hl
      000025 19               [ 8]  111 	add	hl, de
      000026 58               [ 4]  112 	ld	e, b
      000027 16 00            [ 8]  113 	ld	d, #0x00
      000029 19               [ 8]  114 	add	hl, de
      00002A 5D               [ 4]  115 	ld	e, l
      00002B 54               [ 4]  116 	ld	d, h
      00002C 21r11r01         [12]  117 	ld	hl, #_test_dungeon
      00002F 19               [ 8]  118 	add	hl, de
      000030 7E               [ 8]  119 	ld	a, (hl)
      000031 3D               [ 4]  120 	dec	a
      000032 20 08            [12]  121 	jr	NZ, 00107$
                                    122 ;src/main.c:68: player_x = j;
      000034 21r00r00         [12]  123 	ld	hl, #_player_x
      000037 70               [ 8]  124 	ld	(hl), b
                                    125 ;src/main.c:69: player_y = i;
      000038 21r01r00         [12]  126 	ld	hl, #_player_y
      00003B 71               [ 8]  127 	ld	(hl), c
      00003C                        128 00107$:
                                    129 ;src/main.c:66: for(uint8_t j = 0; j < 15; j++){
      00003C 04               [ 4]  130 	inc	b
      00003D 18 D7            [12]  131 	jr	00106$
      00003F                        132 00110$:
                                    133 ;src/main.c:65: for(uint8_t i = 0; i < 15; i++){
      00003F 0C               [ 4]  134 	inc	c
      000040 18 CD            [12]  135 	jr	00109$
      000042                        136 00104$:
                                    137 ;src/main.c:73: SHOW_BKG;
      000042 F0r00            [12]  138 	ldh	a, (_LCDC_REG + 0)
      000044 F6 01            [ 8]  139 	or	a, #0x01
      000046 E0r00            [12]  140 	ldh	(_LCDC_REG + 0), a
                                    141 ;src/main.c:75: }
      000048 C9               [16]  142 	ret
      000049                        143 _white_screen:
      000049 00                     144 	.db #0x00	; 0
      00004A 00                     145 	.db #0x00	; 0
      00004B 00                     146 	.db #0x00	; 0
      00004C 00                     147 	.db #0x00	; 0
      00004D 00                     148 	.db #0x00	; 0
      00004E 00                     149 	.db #0x00	; 0
      00004F 00                     150 	.db #0x00	; 0
      000050 00                     151 	.db #0x00	; 0
      000051 00                     152 	.db #0x00	; 0
      000052 00                     153 	.db #0x00	; 0
      000053 00                     154 	.db #0x00	; 0
      000054 00                     155 	.db #0x00	; 0
      000055 00                     156 	.db #0x00	; 0
      000056 00                     157 	.db #0x00	; 0
      000057 00                     158 	.db #0x00	; 0
      000058 00                     159 	.db #0x00	; 0
      000059 00                     160 	.db #0x00	; 0
      00005A 00                     161 	.db #0x00	; 0
      00005B 00                     162 	.db #0x00	; 0
      00005C 00                     163 	.db #0x00	; 0
      00005D 00                     164 	.db #0x00	; 0
      00005E 00                     165 	.db #0x00	; 0
      00005F 00                     166 	.db #0x00	; 0
      000060 00                     167 	.db #0x00	; 0
      000061 00                     168 	.db #0x00	; 0
      000062 00                     169 	.db #0x00	; 0
      000063 00                     170 	.db #0x00	; 0
      000064 00                     171 	.db #0x00	; 0
      000065 00                     172 	.db #0x00	; 0
      000066 00                     173 	.db #0x00	; 0
      000067 00                     174 	.db #0x00	; 0
      000068 00                     175 	.db #0x00	; 0
      000069 00                     176 	.db #0x00	; 0
      00006A 00                     177 	.db #0x00	; 0
      00006B 00                     178 	.db #0x00	; 0
      00006C 00                     179 	.db #0x00	; 0
      00006D 00                     180 	.db #0x00	; 0
      00006E 00                     181 	.db #0x00	; 0
      00006F 00                     182 	.db #0x00	; 0
      000070 00                     183 	.db #0x00	; 0
      000071 00                     184 	.db #0x00	; 0
      000072 00                     185 	.db #0x00	; 0
      000073 00                     186 	.db #0x00	; 0
      000074 00                     187 	.db #0x00	; 0
      000075 00                     188 	.db #0x00	; 0
      000076 00                     189 	.db #0x00	; 0
      000077 00                     190 	.db #0x00	; 0
      000078 00                     191 	.db #0x00	; 0
      000079 00                     192 	.db #0x00	; 0
      00007A 00                     193 	.db #0x00	; 0
      00007B 00                     194 	.db #0x00	; 0
      00007C 00                     195 	.db #0x00	; 0
      00007D 00                     196 	.db #0x00	; 0
      00007E 00                     197 	.db #0x00	; 0
      00007F 00                     198 	.db #0x00	; 0
      000080 00                     199 	.db #0x00	; 0
      000081 00                     200 	.db #0x00	; 0
      000082 00                     201 	.db #0x00	; 0
      000083 00                     202 	.db #0x00	; 0
      000084 00                     203 	.db #0x00	; 0
      000085 00                     204 	.db #0x00	; 0
      000086 00                     205 	.db #0x00	; 0
      000087 00                     206 	.db #0x00	; 0
      000088 00                     207 	.db #0x00	; 0
      000089 00                     208 	.db #0x00	; 0
      00008A 00                     209 	.db #0x00	; 0
      00008B 00                     210 	.db #0x00	; 0
      00008C 00                     211 	.db #0x00	; 0
      00008D 00                     212 	.db #0x00	; 0
      00008E 00                     213 	.db #0x00	; 0
      00008F 00                     214 	.db #0x00	; 0
      000090 00                     215 	.db #0x00	; 0
      000091 00                     216 	.db #0x00	; 0
      000092 00                     217 	.db #0x00	; 0
      000093 00                     218 	.db #0x00	; 0
      000094 00                     219 	.db #0x00	; 0
      000095 00                     220 	.db #0x00	; 0
      000096 00                     221 	.db #0x00	; 0
      000097 00                     222 	.db #0x00	; 0
      000098 00                     223 	.db #0x00	; 0
      000099 00                     224 	.db #0x00	; 0
      00009A 00                     225 	.db #0x00	; 0
      00009B 00                     226 	.db #0x00	; 0
      00009C 00                     227 	.db #0x00	; 0
      00009D 00                     228 	.db #0x00	; 0
      00009E 00                     229 	.db #0x00	; 0
      00009F 00                     230 	.db #0x00	; 0
      0000A0 00                     231 	.db #0x00	; 0
      0000A1 00                     232 	.db #0x00	; 0
      0000A2 00                     233 	.db #0x00	; 0
      0000A3 00                     234 	.db #0x00	; 0
      0000A4 00                     235 	.db #0x00	; 0
      0000A5 00                     236 	.db #0x00	; 0
      0000A6 00                     237 	.db #0x00	; 0
      0000A7 00                     238 	.db #0x00	; 0
      0000A8 00                     239 	.db #0x00	; 0
      0000A9 00                     240 	.db #0x00	; 0
      0000AA 00                     241 	.db #0x00	; 0
      0000AB 00                     242 	.db #0x00	; 0
      0000AC 00                     243 	.db #0x00	; 0
      0000AD 00                     244 	.db #0x00	; 0
      0000AE 00                     245 	.db #0x00	; 0
      0000AF 00                     246 	.db #0x00	; 0
      0000B0 00                     247 	.db #0x00	; 0
      0000B1 00                     248 	.db #0x00	; 0
      0000B2 00                     249 	.db #0x00	; 0
      0000B3 00                     250 	.db #0x00	; 0
      0000B4 00                     251 	.db #0x00	; 0
      0000B5 00                     252 	.db #0x00	; 0
      0000B6 00                     253 	.db #0x00	; 0
      0000B7 00                     254 	.db #0x00	; 0
      0000B8 00                     255 	.db #0x00	; 0
      0000B9 00                     256 	.db #0x00	; 0
      0000BA 00                     257 	.db #0x00	; 0
      0000BB 00                     258 	.db #0x00	; 0
      0000BC 00                     259 	.db #0x00	; 0
      0000BD 00                     260 	.db #0x00	; 0
      0000BE 00                     261 	.db #0x00	; 0
      0000BF 00                     262 	.db #0x00	; 0
      0000C0 00                     263 	.db #0x00	; 0
      0000C1 00                     264 	.db #0x00	; 0
      0000C2 00                     265 	.db #0x00	; 0
      0000C3 00                     266 	.db #0x00	; 0
      0000C4 00                     267 	.db #0x00	; 0
      0000C5 00                     268 	.db #0x00	; 0
      0000C6 00                     269 	.db #0x00	; 0
      0000C7 00                     270 	.db #0x00	; 0
      0000C8 00                     271 	.db #0x00	; 0
      0000C9 00                     272 	.db #0x00	; 0
      0000CA 00                     273 	.db #0x00	; 0
      0000CB 00                     274 	.db #0x00	; 0
      0000CC 00                     275 	.db #0x00	; 0
      0000CD 00                     276 	.db #0x00	; 0
      0000CE 00                     277 	.db #0x00	; 0
      0000CF 00                     278 	.db #0x00	; 0
      0000D0 00                     279 	.db #0x00	; 0
      0000D1 00                     280 	.db #0x00	; 0
      0000D2 00                     281 	.db #0x00	; 0
      0000D3 00                     282 	.db #0x00	; 0
      0000D4 00                     283 	.db #0x00	; 0
      0000D5 00                     284 	.db #0x00	; 0
      0000D6 00                     285 	.db #0x00	; 0
      0000D7 00                     286 	.db #0x00	; 0
      0000D8 00                     287 	.db #0x00	; 0
      0000D9 00                     288 	.db #0x00	; 0
      0000DA 00                     289 	.db #0x00	; 0
      0000DB 00                     290 	.db #0x00	; 0
      0000DC 00                     291 	.db #0x00	; 0
      0000DD 00                     292 	.db #0x00	; 0
      0000DE 00                     293 	.db #0x00	; 0
      0000DF 00                     294 	.db #0x00	; 0
      0000E0 00                     295 	.db #0x00	; 0
      0000E1 00                     296 	.db #0x00	; 0
      0000E2 00                     297 	.db #0x00	; 0
      0000E3 00                     298 	.db #0x00	; 0
      0000E4 00                     299 	.db #0x00	; 0
      0000E5 00                     300 	.db #0x00	; 0
      0000E6 00                     301 	.db #0x00	; 0
      0000E7 00                     302 	.db #0x00	; 0
      0000E8 00                     303 	.db #0x00	; 0
      0000E9 00                     304 	.db #0x00	; 0
      0000EA 00                     305 	.db #0x00	; 0
      0000EB 00                     306 	.db #0x00	; 0
      0000EC 00                     307 	.db #0x00	; 0
      0000ED 00                     308 	.db #0x00	; 0
      0000EE 00                     309 	.db #0x00	; 0
      0000EF 00                     310 	.db #0x00	; 0
      0000F0 00                     311 	.db #0x00	; 0
      0000F1 00                     312 	.db #0x00	; 0
      0000F2 00                     313 	.db #0x00	; 0
      0000F3 00                     314 	.db #0x00	; 0
      0000F4 00                     315 	.db #0x00	; 0
      0000F5 00                     316 	.db #0x00	; 0
      0000F6 00                     317 	.db #0x00	; 0
      0000F7 00                     318 	.db #0x00	; 0
      0000F8 00                     319 	.db #0x00	; 0
      0000F9 00                     320 	.db #0x00	; 0
      0000FA 00                     321 	.db #0x00	; 0
      0000FB 00                     322 	.db #0x00	; 0
      0000FC 00                     323 	.db #0x00	; 0
      0000FD 00                     324 	.db #0x00	; 0
      0000FE 00                     325 	.db #0x00	; 0
      0000FF 00                     326 	.db #0x00	; 0
      000100 00                     327 	.db #0x00	; 0
      000101 00                     328 	.db #0x00	; 0
      000102 00                     329 	.db #0x00	; 0
      000103 00                     330 	.db #0x00	; 0
      000104 00                     331 	.db #0x00	; 0
      000105 00                     332 	.db #0x00	; 0
      000106 00                     333 	.db #0x00	; 0
      000107 00                     334 	.db #0x00	; 0
      000108 00                     335 	.db #0x00	; 0
      000109 00                     336 	.db #0x00	; 0
      00010A 00                     337 	.db #0x00	; 0
      00010B 00                     338 	.db #0x00	; 0
      00010C 00                     339 	.db #0x00	; 0
      00010D 00                     340 	.db #0x00	; 0
      00010E 00                     341 	.db #0x00	; 0
      00010F 00                     342 	.db #0x00	; 0
      000110 00                     343 	.db #0x00	; 0
      000111                        344 _test_dungeon:
      000111 00                     345 	.db #0x00	; 0
      000112 00                     346 	.db #0x00	; 0
      000113 00                     347 	.db #0x00	; 0
      000114 00                     348 	.db #0x00	; 0
      000115 00                     349 	.db #0x00	; 0
      000116 00                     350 	.db #0x00	; 0
      000117 00                     351 	.db #0x00	; 0
      000118 00                     352 	.db #0x00	; 0
      000119 00                     353 	.db #0x00	; 0
      00011A 00                     354 	.db #0x00	; 0
      00011B 00                     355 	.db #0x00	; 0
      00011C 00                     356 	.db #0x00	; 0
      00011D 00                     357 	.db #0x00	; 0
      00011E 00                     358 	.db #0x00	; 0
      00011F 00                     359 	.db #0x00	; 0
      000120 00                     360 	.db #0x00	; 0
      000121 00                     361 	.db #0x00	; 0
      000122 00                     362 	.db #0x00	; 0
      000123 00                     363 	.db #0x00	; 0
      000124 00                     364 	.db #0x00	; 0
      000125 00                     365 	.db #0x00	; 0
      000126 06                     366 	.db #0x06	; 6
      000127 00                     367 	.db #0x00	; 0
      000128 06                     368 	.db #0x06	; 6
      000129 00                     369 	.db #0x00	; 0
      00012A 00                     370 	.db #0x00	; 0
      00012B 00                     371 	.db #0x00	; 0
      00012C 00                     372 	.db #0x00	; 0
      00012D 00                     373 	.db #0x00	; 0
      00012E 00                     374 	.db #0x00	; 0
      00012F 00                     375 	.db #0x00	; 0
      000130 00                     376 	.db #0x00	; 0
      000131 00                     377 	.db #0x00	; 0
      000132 00                     378 	.db #0x00	; 0
      000133 00                     379 	.db #0x00	; 0
      000134 00                     380 	.db #0x00	; 0
      000135 05                     381 	.db #0x05	; 5
      000136 00                     382 	.db #0x00	; 0
      000137 05                     383 	.db #0x05	; 5
      000138 00                     384 	.db #0x00	; 0
      000139 00                     385 	.db #0x00	; 0
      00013A 00                     386 	.db #0x00	; 0
      00013B 00                     387 	.db #0x00	; 0
      00013C 00                     388 	.db #0x00	; 0
      00013D 00                     389 	.db #0x00	; 0
      00013E 00                     390 	.db #0x00	; 0
      00013F 00                     391 	.db #0x00	; 0
      000140 00                     392 	.db #0x00	; 0
      000141 00                     393 	.db #0x00	; 0
      000142 00                     394 	.db #0x00	; 0
      000143 00                     395 	.db #0x00	; 0
      000144 04                     396 	.db #0x04	; 4
      000145 00                     397 	.db #0x00	; 0
      000146 04                     398 	.db #0x04	; 4
      000147 00                     399 	.db #0x00	; 0
      000148 00                     400 	.db #0x00	; 0
      000149 00                     401 	.db #0x00	; 0
      00014A 00                     402 	.db #0x00	; 0
      00014B 00                     403 	.db #0x00	; 0
      00014C 00                     404 	.db #0x00	; 0
      00014D 00                     405 	.db #0x00	; 0
      00014E 00                     406 	.db #0x00	; 0
      00014F 00                     407 	.db #0x00	; 0
      000150 00                     408 	.db #0x00	; 0
      000151 00                     409 	.db #0x00	; 0
      000152 00                     410 	.db #0x00	; 0
      000153 03                     411 	.db #0x03	; 3
      000154 00                     412 	.db #0x00	; 0
      000155 03                     413 	.db #0x03	; 3
      000156 00                     414 	.db #0x00	; 0
      000157 00                     415 	.db #0x00	; 0
      000158 00                     416 	.db #0x00	; 0
      000159 00                     417 	.db #0x00	; 0
      00015A 00                     418 	.db #0x00	; 0
      00015B 00                     419 	.db #0x00	; 0
      00015C 00                     420 	.db #0x00	; 0
      00015D 00                     421 	.db #0x00	; 0
      00015E 00                     422 	.db #0x00	; 0
      00015F 00                     423 	.db #0x00	; 0
      000160 00                     424 	.db #0x00	; 0
      000161 00                     425 	.db #0x00	; 0
      000162 02                     426 	.db #0x02	; 2
      000163 00                     427 	.db #0x00	; 0
      000164 02                     428 	.db #0x02	; 2
      000165 03                     429 	.db #0x03	; 3
      000166 04                     430 	.db #0x04	; 4
      000167 05                     431 	.db #0x05	; 5
      000168 06                     432 	.db #0x06	; 6
      000169 00                     433 	.db #0x00	; 0
      00016A 00                     434 	.db #0x00	; 0
      00016B 00                     435 	.db #0x00	; 0
      00016C 00                     436 	.db #0x00	; 0
      00016D 00                     437 	.db #0x00	; 0
      00016E 00                     438 	.db #0x00	; 0
      00016F 02                     439 	.db #0x02	; 2
      000170 00                     440 	.db #0x00	; 0
      000171 00                     441 	.db #0x00	; 0
      000172 01                     442 	.db #0x01	; 1
      000173 00                     443 	.db #0x00	; 0
      000174 00                     444 	.db #0x00	; 0
      000175 00                     445 	.db #0x00	; 0
      000176 00                     446 	.db #0x00	; 0
      000177 00                     447 	.db #0x00	; 0
      000178 00                     448 	.db #0x00	; 0
      000179 00                     449 	.db #0x00	; 0
      00017A 00                     450 	.db #0x00	; 0
      00017B 00                     451 	.db #0x00	; 0
      00017C 00                     452 	.db #0x00	; 0
      00017D 00                     453 	.db #0x00	; 0
      00017E 00                     454 	.db #0x00	; 0
      00017F 00                     455 	.db #0x00	; 0
      000180 02                     456 	.db #0x02	; 2
      000181 00                     457 	.db #0x00	; 0
      000182 02                     458 	.db #0x02	; 2
      000183 03                     459 	.db #0x03	; 3
      000184 04                     460 	.db #0x04	; 4
      000185 05                     461 	.db #0x05	; 5
      000186 06                     462 	.db #0x06	; 6
      000187 00                     463 	.db #0x00	; 0
      000188 00                     464 	.db #0x00	; 0
      000189 00                     465 	.db #0x00	; 0
      00018A 00                     466 	.db #0x00	; 0
      00018B 00                     467 	.db #0x00	; 0
      00018C 00                     468 	.db #0x00	; 0
      00018D 00                     469 	.db #0x00	; 0
      00018E 00                     470 	.db #0x00	; 0
      00018F 00                     471 	.db #0x00	; 0
      000190 00                     472 	.db #0x00	; 0
      000191 00                     473 	.db #0x00	; 0
      000192 00                     474 	.db #0x00	; 0
      000193 00                     475 	.db #0x00	; 0
      000194 00                     476 	.db #0x00	; 0
      000195 00                     477 	.db #0x00	; 0
      000196 00                     478 	.db #0x00	; 0
      000197 00                     479 	.db #0x00	; 0
      000198 00                     480 	.db #0x00	; 0
      000199 00                     481 	.db #0x00	; 0
      00019A 00                     482 	.db #0x00	; 0
      00019B 00                     483 	.db #0x00	; 0
      00019C 00                     484 	.db #0x00	; 0
      00019D 00                     485 	.db #0x00	; 0
      00019E 00                     486 	.db #0x00	; 0
      00019F 02                     487 	.db #0x02	; 2
      0001A0 00                     488 	.db #0x00	; 0
      0001A1 00                     489 	.db #0x00	; 0
      0001A2 00                     490 	.db #0x00	; 0
      0001A3 00                     491 	.db #0x00	; 0
      0001A4 00                     492 	.db #0x00	; 0
      0001A5 00                     493 	.db #0x00	; 0
      0001A6 00                     494 	.db #0x00	; 0
      0001A7 00                     495 	.db #0x00	; 0
      0001A8 00                     496 	.db #0x00	; 0
      0001A9 00                     497 	.db #0x00	; 0
      0001AA 00                     498 	.db #0x00	; 0
      0001AB 00                     499 	.db #0x00	; 0
      0001AC 00                     500 	.db #0x00	; 0
      0001AD 00                     501 	.db #0x00	; 0
      0001AE 02                     502 	.db #0x02	; 2
      0001AF 00                     503 	.db #0x00	; 0
      0001B0 00                     504 	.db #0x00	; 0
      0001B1 00                     505 	.db #0x00	; 0
      0001B2 00                     506 	.db #0x00	; 0
      0001B3 00                     507 	.db #0x00	; 0
      0001B4 00                     508 	.db #0x00	; 0
      0001B5 00                     509 	.db #0x00	; 0
      0001B6 00                     510 	.db #0x00	; 0
      0001B7 00                     511 	.db #0x00	; 0
      0001B8 00                     512 	.db #0x00	; 0
      0001B9 00                     513 	.db #0x00	; 0
      0001BA 00                     514 	.db #0x00	; 0
      0001BB 00                     515 	.db #0x00	; 0
      0001BC 00                     516 	.db #0x00	; 0
      0001BD 00                     517 	.db #0x00	; 0
      0001BE 00                     518 	.db #0x00	; 0
      0001BF 00                     519 	.db #0x00	; 0
      0001C0 00                     520 	.db #0x00	; 0
      0001C1 00                     521 	.db #0x00	; 0
      0001C2 00                     522 	.db #0x00	; 0
      0001C3 00                     523 	.db #0x00	; 0
      0001C4 00                     524 	.db #0x00	; 0
      0001C5 00                     525 	.db #0x00	; 0
      0001C6 00                     526 	.db #0x00	; 0
      0001C7 00                     527 	.db #0x00	; 0
      0001C8 00                     528 	.db #0x00	; 0
      0001C9 00                     529 	.db #0x00	; 0
      0001CA 00                     530 	.db #0x00	; 0
      0001CB 00                     531 	.db #0x00	; 0
      0001CC 00                     532 	.db #0x00	; 0
      0001CD 00                     533 	.db #0x00	; 0
      0001CE 00                     534 	.db #0x00	; 0
      0001CF 00                     535 	.db #0x00	; 0
      0001D0 00                     536 	.db #0x00	; 0
      0001D1 00                     537 	.db #0x00	; 0
      0001D2 00                     538 	.db #0x00	; 0
      0001D3 00                     539 	.db #0x00	; 0
      0001D4 00                     540 	.db #0x00	; 0
      0001D5 00                     541 	.db #0x00	; 0
      0001D6 00                     542 	.db #0x00	; 0
      0001D7 00                     543 	.db #0x00	; 0
      0001D8 00                     544 	.db #0x00	; 0
      0001D9 00                     545 	.db #0x00	; 0
      0001DA 00                     546 	.db #0x00	; 0
      0001DB 00                     547 	.db #0x00	; 0
      0001DC 00                     548 	.db #0x00	; 0
      0001DD 00                     549 	.db #0x00	; 0
      0001DE 00                     550 	.db #0x00	; 0
      0001DF 00                     551 	.db #0x00	; 0
      0001E0 00                     552 	.db #0x00	; 0
      0001E1 00                     553 	.db #0x00	; 0
      0001E2 00                     554 	.db #0x00	; 0
      0001E3 00                     555 	.db #0x00	; 0
      0001E4 00                     556 	.db #0x00	; 0
      0001E5 00                     557 	.db #0x00	; 0
      0001E6 00                     558 	.db #0x00	; 0
      0001E7 00                     559 	.db #0x00	; 0
      0001E8 00                     560 	.db #0x00	; 0
      0001E9 00                     561 	.db #0x00	; 0
      0001EA 00                     562 	.db #0x00	; 0
      0001EB 00                     563 	.db #0x00	; 0
      0001EC 00                     564 	.db #0x00	; 0
      0001ED 00                     565 	.db #0x00	; 0
      0001EE 00                     566 	.db #0x00	; 0
      0001EF 00                     567 	.db #0x00	; 0
      0001F0 00                     568 	.db #0x00	; 0
      0001F1 00                     569 	.db #0x00	; 0
                                    570 ;src/main.c:77: void update_dng(unsigned char *dng,uint8_t dungeon_width, uint8_t dungeon_hieght){
                                    571 ;	---------------------------------
                                    572 ; Function update_dng
                                    573 ; ---------------------------------
      0001F2                        574 _update_dng::
      0001F2 4F               [ 4]  575 	ld	c, a
                                    576 ;src/main.c:80: set_bkg_tiles(0,0,20,10,white_screen);
      0001F3 D5               [16]  577 	push	de
      0001F4 21r49r00         [12]  578 	ld	hl, #_white_screen
      0001F7 E5               [16]  579 	push	hl
      0001F8 21 14 0A         [12]  580 	ld	hl, #0xa14
      0001FB E5               [16]  581 	push	hl
      0001FC AF               [ 4]  582 	xor	a, a
      0001FD 0F               [ 4]  583 	rrca
      0001FE F5               [16]  584 	push	af
      0001FF CDr00r00         [24]  585 	call	_set_bkg_tiles
      000202 E8 06            [16]  586 	add	sp, #6
      000204 D1               [12]  587 	pop	de
                                    588 ;src/main.c:82: switch (player_dir){
      000205 FAr03r00         [16]  589 	ld	a, (#_player_dir)
      000208 B7               [ 4]  590 	or	a, a
      000209 28 19            [12]  591 	jr	Z, 00101$
      00020B FAr03r00         [16]  592 	ld	a, (#_player_dir)
      00020E 3D               [ 4]  593 	dec	a
      00020F CAr03r03         [16]  594 	jp	Z,00104$
      000212 FAr03r00         [16]  595 	ld	a, (#_player_dir)
      000215 D6 02            [ 8]  596 	sub	a, #0x02
      000217 28 56            [12]  597 	jr	Z, 00102$
      000219 FAr03r00         [16]  598 	ld	a, (#_player_dir)
      00021C D6 03            [ 8]  599 	sub	a, #0x03
      00021E CArB9r02         [16]  600 	jp	Z,00103$
      000221 C3r4Br03         [16]  601 	jp	00106$
                                    602 ;src/main.c:83: case north:
      000224                        603 00101$:
                                    604 ;src/main.c:84: check_l_walls_n(dng,dungeon_width,dungeon_hieght,player_x,player_y);
      000224 C5               [16]  605 	push	bc
      000225 D5               [16]  606 	push	de
      000226 FAr01r00         [16]  607 	ld	a, (#_player_y)
      000229 67               [ 4]  608 	ld	h, a
      00022A FAr00r00         [16]  609 	ld	a, (#_player_x)
      00022D 6F               [ 4]  610 	ld	l, a
      00022E E5               [16]  611 	push	hl
      00022F F8 08            [12]  612 	ldhl	sp,	#8
      000231 7E               [ 8]  613 	ld	a, (hl)
      000232 F5               [16]  614 	push	af
      000233 33               [ 8]  615 	inc	sp
      000234 79               [ 4]  616 	ld	a, c
      000235 CDr00r00         [24]  617 	call	_check_l_walls_n
      000238 D1               [12]  618 	pop	de
      000239 C1               [12]  619 	pop	bc
                                    620 ;src/main.c:85: check_r_walls_n(dng,dungeon_width,dungeon_hieght,player_x,player_y);
      00023A C5               [16]  621 	push	bc
      00023B D5               [16]  622 	push	de
      00023C FAr01r00         [16]  623 	ld	a, (#_player_y)
      00023F 67               [ 4]  624 	ld	h, a
      000240 FAr00r00         [16]  625 	ld	a, (#_player_x)
      000243 6F               [ 4]  626 	ld	l, a
      000244 E5               [16]  627 	push	hl
      000245 F8 08            [12]  628 	ldhl	sp,	#8
      000247 7E               [ 8]  629 	ld	a, (hl)
      000248 F5               [16]  630 	push	af
      000249 33               [ 8]  631 	inc	sp
      00024A 79               [ 4]  632 	ld	a, c
      00024B CDr00r00         [24]  633 	call	_check_r_walls_n
      00024E D1               [12]  634 	pop	de
      00024F C1               [12]  635 	pop	bc
                                    636 ;src/main.c:86: check_m_walls(dng,dungeon_width,dungeon_hieght, player_x, player_y, 0, -1);
      000250 21 00 FF         [12]  637 	ld	hl, #0xff00
      000253 E5               [16]  638 	push	hl
      000254 FAr01r00         [16]  639 	ld	a, (#_player_y)
      000257 67               [ 4]  640 	ld	h, a
      000258 FAr00r00         [16]  641 	ld	a, (#_player_x)
      00025B 6F               [ 4]  642 	ld	l, a
      00025C E5               [16]  643 	push	hl
      00025D F8 06            [12]  644 	ldhl	sp,	#6
      00025F 7E               [ 8]  645 	ld	a, (hl)
      000260 F5               [16]  646 	push	af
      000261 33               [ 8]  647 	inc	sp
      000262 79               [ 4]  648 	ld	a, c
      000263 CDr00r00         [24]  649 	call	_check_m_walls
                                    650 ;src/main.c:88: SHOW_BKG;
      000266 F0r00            [12]  651 	ldh	a, (_LCDC_REG + 0)
      000268 F6 01            [ 8]  652 	or	a, #0x01
      00026A E0r00            [12]  653 	ldh	(_LCDC_REG + 0), a
                                    654 ;src/main.c:89: break;
      00026C C3r4Br03         [16]  655 	jp	00106$
                                    656 ;src/main.c:90: case south:
      00026F                        657 00102$:
                                    658 ;src/main.c:91: check_l_walls_s(dng,dungeon_width,dungeon_hieght,player_x,player_y);
      00026F C5               [16]  659 	push	bc
      000270 D5               [16]  660 	push	de
      000271 FAr01r00         [16]  661 	ld	a, (#_player_y)
      000274 67               [ 4]  662 	ld	h, a
      000275 FAr00r00         [16]  663 	ld	a, (#_player_x)
      000278 6F               [ 4]  664 	ld	l, a
      000279 E5               [16]  665 	push	hl
      00027A F8 08            [12]  666 	ldhl	sp,	#8
      00027C 7E               [ 8]  667 	ld	a, (hl)
      00027D F5               [16]  668 	push	af
      00027E 33               [ 8]  669 	inc	sp
      00027F 79               [ 4]  670 	ld	a, c
      000280 CDr00r00         [24]  671 	call	_check_l_walls_s
      000283 D1               [12]  672 	pop	de
      000284 C1               [12]  673 	pop	bc
                                    674 ;src/main.c:92: check_r_walls_s(dng,dungeon_width,dungeon_hieght,player_x,player_y);
      000285 C5               [16]  675 	push	bc
      000286 D5               [16]  676 	push	de
      000287 FAr01r00         [16]  677 	ld	a, (#_player_y)
      00028A 67               [ 4]  678 	ld	h, a
      00028B FAr00r00         [16]  679 	ld	a, (#_player_x)
      00028E 6F               [ 4]  680 	ld	l, a
      00028F E5               [16]  681 	push	hl
      000290 F8 08            [12]  682 	ldhl	sp,	#8
      000292 7E               [ 8]  683 	ld	a, (hl)
      000293 F5               [16]  684 	push	af
      000294 33               [ 8]  685 	inc	sp
      000295 79               [ 4]  686 	ld	a, c
      000296 CDr00r00         [24]  687 	call	_check_r_walls_s
      000299 D1               [12]  688 	pop	de
      00029A C1               [12]  689 	pop	bc
                                    690 ;src/main.c:93: check_m_walls(dng,dungeon_width,dungeon_hieght, player_x, player_y,0,+1);
      00029B AF               [ 4]  691 	xor	a, a
      00029C 3C               [ 4]  692 	inc	a
      00029D F5               [16]  693 	push	af
      00029E FAr01r00         [16]  694 	ld	a, (#_player_y)
      0002A1 67               [ 4]  695 	ld	h, a
      0002A2 FAr00r00         [16]  696 	ld	a, (#_player_x)
      0002A5 6F               [ 4]  697 	ld	l, a
      0002A6 E5               [16]  698 	push	hl
      0002A7 F8 06            [12]  699 	ldhl	sp,	#6
      0002A9 7E               [ 8]  700 	ld	a, (hl)
      0002AA F5               [16]  701 	push	af
      0002AB 33               [ 8]  702 	inc	sp
      0002AC 79               [ 4]  703 	ld	a, c
      0002AD CDr00r00         [24]  704 	call	_check_m_walls
                                    705 ;src/main.c:94: SHOW_BKG;
      0002B0 F0r00            [12]  706 	ldh	a, (_LCDC_REG + 0)
      0002B2 F6 01            [ 8]  707 	or	a, #0x01
      0002B4 E0r00            [12]  708 	ldh	(_LCDC_REG + 0), a
                                    709 ;src/main.c:95: break;
      0002B6 C3r4Br03         [16]  710 	jp	00106$
                                    711 ;src/main.c:96: case west:
      0002B9                        712 00103$:
                                    713 ;src/main.c:97: check_l_walls_w(dng,dungeon_width,dungeon_hieght,player_x,player_y);
      0002B9 C5               [16]  714 	push	bc
      0002BA D5               [16]  715 	push	de
      0002BB FAr01r00         [16]  716 	ld	a, (#_player_y)
      0002BE 67               [ 4]  717 	ld	h, a
      0002BF FAr00r00         [16]  718 	ld	a, (#_player_x)
      0002C2 6F               [ 4]  719 	ld	l, a
      0002C3 E5               [16]  720 	push	hl
      0002C4 F8 08            [12]  721 	ldhl	sp,	#8
      0002C6 7E               [ 8]  722 	ld	a, (hl)
      0002C7 F5               [16]  723 	push	af
      0002C8 33               [ 8]  724 	inc	sp
      0002C9 79               [ 4]  725 	ld	a, c
      0002CA CDr00r00         [24]  726 	call	_check_l_walls_w
      0002CD D1               [12]  727 	pop	de
      0002CE C1               [12]  728 	pop	bc
                                    729 ;src/main.c:98: check_r_walls_w(dng,dungeon_width,dungeon_hieght,player_x,player_y);
      0002CF C5               [16]  730 	push	bc
      0002D0 D5               [16]  731 	push	de
      0002D1 FAr01r00         [16]  732 	ld	a, (#_player_y)
      0002D4 67               [ 4]  733 	ld	h, a
      0002D5 FAr00r00         [16]  734 	ld	a, (#_player_x)
      0002D8 6F               [ 4]  735 	ld	l, a
      0002D9 E5               [16]  736 	push	hl
      0002DA F8 08            [12]  737 	ldhl	sp,	#8
      0002DC 7E               [ 8]  738 	ld	a, (hl)
      0002DD F5               [16]  739 	push	af
      0002DE 33               [ 8]  740 	inc	sp
      0002DF 79               [ 4]  741 	ld	a, c
      0002E0 CDr00r00         [24]  742 	call	_check_r_walls_w
      0002E3 D1               [12]  743 	pop	de
      0002E4 C1               [12]  744 	pop	bc
                                    745 ;src/main.c:99: check_m_walls(dng,dungeon_width,dungeon_hieght, player_x, player_y,-1,0);
      0002E5 21 FF 00         [12]  746 	ld	hl, #0xff
      0002E8 E5               [16]  747 	push	hl
      0002E9 FAr01r00         [16]  748 	ld	a, (#_player_y)
      0002EC 67               [ 4]  749 	ld	h, a
      0002ED FAr00r00         [16]  750 	ld	a, (#_player_x)
      0002F0 6F               [ 4]  751 	ld	l, a
      0002F1 E5               [16]  752 	push	hl
      0002F2 F8 06            [12]  753 	ldhl	sp,	#6
      0002F4 7E               [ 8]  754 	ld	a, (hl)
      0002F5 F5               [16]  755 	push	af
      0002F6 33               [ 8]  756 	inc	sp
      0002F7 79               [ 4]  757 	ld	a, c
      0002F8 CDr00r00         [24]  758 	call	_check_m_walls
                                    759 ;src/main.c:101: SHOW_BKG;
      0002FB F0r00            [12]  760 	ldh	a, (_LCDC_REG + 0)
      0002FD F6 01            [ 8]  761 	or	a, #0x01
      0002FF E0r00            [12]  762 	ldh	(_LCDC_REG + 0), a
                                    763 ;src/main.c:102: break;
      000301 18 48            [12]  764 	jr	00106$
                                    765 ;src/main.c:103: case east:
      000303                        766 00104$:
                                    767 ;src/main.c:104: check_l_walls_e(dng,dungeon_width,dungeon_hieght,player_x,player_y);
      000303 C5               [16]  768 	push	bc
      000304 D5               [16]  769 	push	de
      000305 FAr01r00         [16]  770 	ld	a, (#_player_y)
      000308 67               [ 4]  771 	ld	h, a
      000309 FAr00r00         [16]  772 	ld	a, (#_player_x)
      00030C 6F               [ 4]  773 	ld	l, a
      00030D E5               [16]  774 	push	hl
      00030E F8 08            [12]  775 	ldhl	sp,	#8
      000310 7E               [ 8]  776 	ld	a, (hl)
      000311 F5               [16]  777 	push	af
      000312 33               [ 8]  778 	inc	sp
      000313 79               [ 4]  779 	ld	a, c
      000314 CDr00r00         [24]  780 	call	_check_l_walls_e
      000317 D1               [12]  781 	pop	de
      000318 C1               [12]  782 	pop	bc
                                    783 ;src/main.c:105: check_r_walls_e(dng,dungeon_width,dungeon_hieght,player_x,player_y);
      000319 C5               [16]  784 	push	bc
      00031A D5               [16]  785 	push	de
      00031B FAr01r00         [16]  786 	ld	a, (#_player_y)
      00031E 67               [ 4]  787 	ld	h, a
      00031F FAr00r00         [16]  788 	ld	a, (#_player_x)
      000322 6F               [ 4]  789 	ld	l, a
      000323 E5               [16]  790 	push	hl
      000324 F8 08            [12]  791 	ldhl	sp,	#8
      000326 7E               [ 8]  792 	ld	a, (hl)
      000327 F5               [16]  793 	push	af
      000328 33               [ 8]  794 	inc	sp
      000329 79               [ 4]  795 	ld	a, c
      00032A CDr00r00         [24]  796 	call	_check_r_walls_e
      00032D D1               [12]  797 	pop	de
      00032E C1               [12]  798 	pop	bc
                                    799 ;src/main.c:106: check_m_walls(dng,dungeon_width,dungeon_hieght, player_x, player_y,+1,0);
      00032F 21 01 00         [12]  800 	ld	hl, #0x01
      000332 E5               [16]  801 	push	hl
      000333 FAr01r00         [16]  802 	ld	a, (#_player_y)
      000336 67               [ 4]  803 	ld	h, a
      000337 FAr00r00         [16]  804 	ld	a, (#_player_x)
      00033A 6F               [ 4]  805 	ld	l, a
      00033B E5               [16]  806 	push	hl
      00033C F8 06            [12]  807 	ldhl	sp,	#6
      00033E 7E               [ 8]  808 	ld	a, (hl)
      00033F F5               [16]  809 	push	af
      000340 33               [ 8]  810 	inc	sp
      000341 79               [ 4]  811 	ld	a, c
      000342 CDr00r00         [24]  812 	call	_check_m_walls
                                    813 ;src/main.c:108: SHOW_BKG;
      000345 F0r00            [12]  814 	ldh	a, (_LCDC_REG + 0)
      000347 F6 01            [ 8]  815 	or	a, #0x01
      000349 E0r00            [12]  816 	ldh	(_LCDC_REG + 0), a
                                    817 ;src/main.c:110: }
      00034B                        818 00106$:
                                    819 ;src/main.c:112: }
      00034B E1               [12]  820 	pop	hl
      00034C 33               [ 8]  821 	inc	sp
      00034D E9               [ 4]  822 	jp	(hl)
                                    823 ;src/main.c:115: void main(void)
                                    824 ;	---------------------------------
                                    825 ; Function main
                                    826 ; ---------------------------------
      00034E                        827 _main::
                                    828 ;src/main.c:118: init_gfx();
      00034E CDr00r00         [24]  829 	call	_init_gfx
                                    830 ;src/main.c:119: update_dng(test_dungeon,15,15);
      000351 3E 0F            [ 8]  831 	ld	a, #0x0f
      000353 F5               [16]  832 	push	af
      000354 33               [ 8]  833 	inc	sp
      000355 3E 0F            [ 8]  834 	ld	a, #0x0f
      000357 11r11r01         [12]  835 	ld	de, #_test_dungeon
      00035A CDrF2r01         [24]  836 	call	_update_dng
                                    837 ;src/main.c:120: set_sprite_data(0,4,news);
      00035D 11r00r00         [12]  838 	ld	de, #_news
      000360 D5               [16]  839 	push	de
      000361 3E 04            [ 8]  840 	ld	a, #0x04
      000363 F5               [16]  841 	push	af
      000364 33               [ 8]  842 	inc	sp
      000365 AF               [ 4]  843 	xor	a, a
      000366 F5               [16]  844 	push	af
      000367 33               [ 8]  845 	inc	sp
      000368 CDr00r00         [24]  846 	call	_set_sprite_data
      00036B E8 04            [16]  847 	add	sp, #4
                                    848 ;src/main.c:121: set_sprite_tile(0,player_dir);
      00036D 21r03r00         [12]  849 	ld	hl, #_player_dir
      000370 4E               [ 8]  850 	ld	c, (hl)
                                    851 ;../gbdk/include/gb/gb.h:1602: shadow_OAM[nb].tile=tile;
      000371 21r02r00         [12]  852 	ld	hl, #(_shadow_OAM + 2)
      000374 71               [ 8]  853 	ld	(hl), c
                                    854 ;../gbdk/include/gb/gb.h:1675: OAM_item_t * itm = &shadow_OAM[nb];
      000375 21r00r00         [12]  855 	ld	hl, #_shadow_OAM
                                    856 ;../gbdk/include/gb/gb.h:1676: itm->y=y, itm->x=x;
      000378 36 10            [12]  857 	ld	(hl), #0x10
      00037A 23               [ 8]  858 	inc	hl
      00037B 36 0A            [12]  859 	ld	(hl), #0x0a
                                    860 ;src/main.c:123: SHOW_SPRITES;
      00037D F0r00            [12]  861 	ldh	a, (_LCDC_REG + 0)
      00037F F6 02            [ 8]  862 	or	a, #0x02
      000381 E0r00            [12]  863 	ldh	(_LCDC_REG + 0), a
                                    864 ;src/main.c:125: while(1) {
      000383                        865 00128$:
                                    866 ;src/main.c:127: joypadPrevious = joypadCurrent;
      000383 FAr04r00         [16]  867 	ld	a, (#_joypadCurrent)
      000386 EAr05r00         [16]  868 	ld	(#_joypadPrevious),a
                                    869 ;src/main.c:128: joypadCurrent = joypad();
      000389 CDr00r00         [24]  870 	call	_joypad
      00038C 21r04r00         [12]  871 	ld	hl, #_joypadCurrent
      00038F 77               [ 8]  872 	ld	(hl), a
                                    873 ;src/main.c:130: if((joypadCurrent & J_LEFT) && !(joypadPrevious & J_LEFT)){
      000390 CB 4E            [12]  874 	bit	1, (hl)
      000392 28 28            [12]  875 	jr	Z, 00104$
      000394 FAr05r00         [16]  876 	ld	a, (#_joypadPrevious)
      000397 CB 4F            [ 8]  877 	bit	1, a
      000399 20 21            [12]  878 	jr	NZ, 00104$
                                    879 ;src/main.c:131: player_dir--;
      00039B 21r03r00         [12]  880 	ld	hl, #_player_dir
      00039E 35               [12]  881 	dec	(hl)
                                    882 ;src/main.c:132: if (player_dir==255){
      00039F 7E               [ 8]  883 	ld	a, (hl)
      0003A0 3C               [ 4]  884 	inc	a
      0003A1 20 05            [12]  885 	jr	NZ, 00102$
                                    886 ;src/main.c:133: player_dir = west;
      0003A3 21r03r00         [12]  887 	ld	hl, #_player_dir
      0003A6 36 03            [12]  888 	ld	(hl), #0x03
      0003A8                        889 00102$:
                                    890 ;src/main.c:135: update_dng(test_dungeon,15,15);
      0003A8 3E 0F            [ 8]  891 	ld	a, #0x0f
      0003AA F5               [16]  892 	push	af
      0003AB 33               [ 8]  893 	inc	sp
      0003AC 3E 0F            [ 8]  894 	ld	a, #0x0f
      0003AE 11r11r01         [12]  895 	ld	de, #_test_dungeon
      0003B1 CDrF2r01         [24]  896 	call	_update_dng
                                    897 ;src/main.c:136: set_sprite_tile(0,player_dir);
      0003B4 21r03r00         [12]  898 	ld	hl, #_player_dir
      0003B7 4E               [ 8]  899 	ld	c, (hl)
                                    900 ;../gbdk/include/gb/gb.h:1602: shadow_OAM[nb].tile=tile;
      0003B8 21r02r00         [12]  901 	ld	hl, #(_shadow_OAM + 2)
      0003BB 71               [ 8]  902 	ld	(hl), c
                                    903 ;src/main.c:136: set_sprite_tile(0,player_dir);
      0003BC                        904 00104$:
                                    905 ;src/main.c:138: if((joypadCurrent & J_RIGHT) && !(joypadPrevious & J_RIGHT)){
      0003BC FAr04r00         [16]  906 	ld	a, (#_joypadCurrent)
      0003BF 0F               [ 4]  907 	rrca
      0003C0 30 28            [12]  908 	jr	NC, 00109$
      0003C2 FAr05r00         [16]  909 	ld	a, (#_joypadPrevious)
      0003C5 0F               [ 4]  910 	rrca
      0003C6 38 22            [12]  911 	jr	C, 00109$
                                    912 ;src/main.c:139: player_dir++;
      0003C8 21r03r00         [12]  913 	ld	hl, #_player_dir
      0003CB 34               [12]  914 	inc	(hl)
                                    915 ;src/main.c:140: if(player_dir==4){
      0003CC 7E               [ 8]  916 	ld	a, (hl)
      0003CD D6 04            [ 8]  917 	sub	a, #0x04
      0003CF 20 05            [12]  918 	jr	NZ, 00107$
                                    919 ;src/main.c:141: player_dir=north;
      0003D1 21r03r00         [12]  920 	ld	hl, #_player_dir
      0003D4 36 00            [12]  921 	ld	(hl), #0x00
      0003D6                        922 00107$:
                                    923 ;src/main.c:143: update_dng(test_dungeon,15,15);
      0003D6 3E 0F            [ 8]  924 	ld	a, #0x0f
      0003D8 F5               [16]  925 	push	af
      0003D9 33               [ 8]  926 	inc	sp
      0003DA 3E 0F            [ 8]  927 	ld	a, #0x0f
      0003DC 11r11r01         [12]  928 	ld	de, #_test_dungeon
      0003DF CDrF2r01         [24]  929 	call	_update_dng
                                    930 ;src/main.c:144: set_sprite_tile(0,player_dir);
      0003E2 21r03r00         [12]  931 	ld	hl, #_player_dir
      0003E5 4E               [ 8]  932 	ld	c, (hl)
                                    933 ;../gbdk/include/gb/gb.h:1602: shadow_OAM[nb].tile=tile;
      0003E6 21r02r00         [12]  934 	ld	hl, #(_shadow_OAM + 2)
      0003E9 71               [ 8]  935 	ld	(hl), c
                                    936 ;src/main.c:144: set_sprite_tile(0,player_dir);
      0003EA                        937 00109$:
                                    938 ;src/main.c:146: if((joypadCurrent & J_UP) && !(joypadPrevious & J_UP)){
      0003EA FAr04r00         [16]  939 	ld	a, (#_joypadCurrent)
      0003ED CB 57            [ 8]  940 	bit	2, a
      0003EF 28 4D            [12]  941 	jr	Z, 00117$
      0003F1 FAr05r00         [16]  942 	ld	a, (#_joypadPrevious)
      0003F4 CB 57            [ 8]  943 	bit	2, a
      0003F6 20 46            [12]  944 	jr	NZ, 00117$
                                    945 ;src/main.c:147: switch(player_dir){
      0003F8 FAr03r00         [16]  946 	ld	a, (#_player_dir)
      0003FB B7               [ 4]  947 	or	a, a
      0003FC 28 16            [12]  948 	jr	Z, 00111$
      0003FE FAr03r00         [16]  949 	ld	a, (#_player_dir)
      000401 3D               [ 4]  950 	dec	a
      000402 28 16            [12]  951 	jr	Z, 00112$
      000404 FAr03r00         [16]  952 	ld	a, (#_player_dir)
      000407 D6 02            [ 8]  953 	sub	a, #0x02
      000409 28 15            [12]  954 	jr	Z, 00113$
      00040B FAr03r00         [16]  955 	ld	a, (#_player_dir)
      00040E D6 03            [ 8]  956 	sub	a, #0x03
      000410 28 14            [12]  957 	jr	Z, 00114$
      000412 18 16            [12]  958 	jr	00115$
                                    959 ;src/main.c:148: case north:
      000414                        960 00111$:
                                    961 ;src/main.c:149: player_y--;
      000414 21r01r00         [12]  962 	ld	hl, #_player_y
      000417 35               [12]  963 	dec	(hl)
                                    964 ;src/main.c:150: break;
      000418 18 10            [12]  965 	jr	00115$
                                    966 ;src/main.c:151: case east:
      00041A                        967 00112$:
                                    968 ;src/main.c:152: player_x++;
      00041A 21r00r00         [12]  969 	ld	hl, #_player_x
      00041D 34               [12]  970 	inc	(hl)
                                    971 ;src/main.c:153: break;
      00041E 18 0A            [12]  972 	jr	00115$
                                    973 ;src/main.c:154: case south:
      000420                        974 00113$:
                                    975 ;src/main.c:155: player_y++;
      000420 21r01r00         [12]  976 	ld	hl, #_player_y
      000423 34               [12]  977 	inc	(hl)
                                    978 ;src/main.c:156: break;
      000424 18 04            [12]  979 	jr	00115$
                                    980 ;src/main.c:157: case west:
      000426                        981 00114$:
                                    982 ;src/main.c:158: player_x--;
      000426 21r00r00         [12]  983 	ld	hl, #_player_x
      000429 35               [12]  984 	dec	(hl)
                                    985 ;src/main.c:160: }
      00042A                        986 00115$:
                                    987 ;src/main.c:161: update_dng(test_dungeon,15,15);
      00042A 3E 0F            [ 8]  988 	ld	a, #0x0f
      00042C F5               [16]  989 	push	af
      00042D 33               [ 8]  990 	inc	sp
      00042E 3E 0F            [ 8]  991 	ld	a, #0x0f
      000430 11r11r01         [12]  992 	ld	de, #_test_dungeon
      000433 CDrF2r01         [24]  993 	call	_update_dng
                                    994 ;src/main.c:162: set_sprite_tile(0,player_dir);
      000436 21r03r00         [12]  995 	ld	hl, #_player_dir
      000439 4E               [ 8]  996 	ld	c, (hl)
                                    997 ;../gbdk/include/gb/gb.h:1602: shadow_OAM[nb].tile=tile;
      00043A 21r02r00         [12]  998 	ld	hl, #(_shadow_OAM + 2)
      00043D 71               [ 8]  999 	ld	(hl), c
                                   1000 ;src/main.c:162: set_sprite_tile(0,player_dir);
      00043E                       1001 00117$:
                                   1002 ;src/main.c:164: if((joypadCurrent & J_DOWN) && !(joypadPrevious & J_DOWN)){
      00043E FAr04r00         [16] 1003 	ld	a, (#_joypadCurrent)
      000441 CB 5F            [ 8] 1004 	bit	3, a
      000443 28 4D            [12] 1005 	jr	Z, 00125$
      000445 FAr05r00         [16] 1006 	ld	a, (#_joypadPrevious)
      000448 CB 5F            [ 8] 1007 	bit	3, a
      00044A 20 46            [12] 1008 	jr	NZ, 00125$
                                   1009 ;src/main.c:165: switch(player_dir){
      00044C FAr03r00         [16] 1010 	ld	a, (#_player_dir)
      00044F B7               [ 4] 1011 	or	a, a
      000450 28 16            [12] 1012 	jr	Z, 00119$
      000452 FAr03r00         [16] 1013 	ld	a, (#_player_dir)
      000455 3D               [ 4] 1014 	dec	a
      000456 28 16            [12] 1015 	jr	Z, 00120$
      000458 FAr03r00         [16] 1016 	ld	a, (#_player_dir)
      00045B D6 02            [ 8] 1017 	sub	a, #0x02
      00045D 28 15            [12] 1018 	jr	Z, 00121$
      00045F FAr03r00         [16] 1019 	ld	a, (#_player_dir)
      000462 D6 03            [ 8] 1020 	sub	a, #0x03
      000464 28 14            [12] 1021 	jr	Z, 00122$
      000466 18 16            [12] 1022 	jr	00123$
                                   1023 ;src/main.c:166: case north:
      000468                       1024 00119$:
                                   1025 ;src/main.c:167: player_y++;
      000468 21r01r00         [12] 1026 	ld	hl, #_player_y
      00046B 34               [12] 1027 	inc	(hl)
                                   1028 ;src/main.c:168: break;
      00046C 18 10            [12] 1029 	jr	00123$
                                   1030 ;src/main.c:169: case east:
      00046E                       1031 00120$:
                                   1032 ;src/main.c:170: player_x--;
      00046E 21r00r00         [12] 1033 	ld	hl, #_player_x
      000471 35               [12] 1034 	dec	(hl)
                                   1035 ;src/main.c:171: break;
      000472 18 0A            [12] 1036 	jr	00123$
                                   1037 ;src/main.c:172: case south:
      000474                       1038 00121$:
                                   1039 ;src/main.c:173: player_y--;
      000474 21r01r00         [12] 1040 	ld	hl, #_player_y
      000477 35               [12] 1041 	dec	(hl)
                                   1042 ;src/main.c:174: break;
      000478 18 04            [12] 1043 	jr	00123$
                                   1044 ;src/main.c:175: case west:
      00047A                       1045 00122$:
                                   1046 ;src/main.c:176: player_x++;
      00047A 21r00r00         [12] 1047 	ld	hl, #_player_x
      00047D 34               [12] 1048 	inc	(hl)
                                   1049 ;src/main.c:178: }
      00047E                       1050 00123$:
                                   1051 ;src/main.c:179: update_dng(test_dungeon,15,15);
      00047E 3E 0F            [ 8] 1052 	ld	a, #0x0f
      000480 F5               [16] 1053 	push	af
      000481 33               [ 8] 1054 	inc	sp
      000482 3E 0F            [ 8] 1055 	ld	a, #0x0f
      000484 11r11r01         [12] 1056 	ld	de, #_test_dungeon
      000487 CDrF2r01         [24] 1057 	call	_update_dng
                                   1058 ;src/main.c:180: set_sprite_tile(0,player_dir);
      00048A 21r03r00         [12] 1059 	ld	hl, #_player_dir
      00048D 4E               [ 8] 1060 	ld	c, (hl)
                                   1061 ;../gbdk/include/gb/gb.h:1602: shadow_OAM[nb].tile=tile;
      00048E 21r02r00         [12] 1062 	ld	hl, #(_shadow_OAM + 2)
      000491 71               [ 8] 1063 	ld	(hl), c
                                   1064 ;src/main.c:180: set_sprite_tile(0,player_dir);
      000492                       1065 00125$:
                                   1066 ;src/main.c:192: wait_vbl_done();
      000492 CDr00r00         [24] 1067 	call	_wait_vbl_done
                                   1068 ;src/main.c:194: }
      000495 C3r83r03         [16] 1069 	jp	00128$
                                   1070 	.area _CODE
                                   1071 	.area _INITIALIZER
      000000                       1072 __xinit__player_x:
      000000 00                    1073 	.db #0x00	; 0
      000001                       1074 __xinit__player_y:
      000001 00                    1075 	.db #0x00	; 0
      000002                       1076 __xinit__global_state:
      000002 01                    1077 	.db #0x01	; 1
      000003                       1078 __xinit__player_dir:
      000003 00                    1079 	.db #0x00	; 0
      000004                       1080 __xinit__joypadCurrent:
      000004 00                    1081 	.db #0x00	; 0
      000005                       1082 __xinit__joypadPrevious:
      000005 00                    1083 	.db #0x00	; 0
                                   1084 	.area _CABS (ABS)
